(lp1
ccopy_reg
_reconstructor
p2
(cnetworkx.classes.graph
Graph
p3
c__builtin__
object
p4
NtRp5
(dp6
S'node'
p7
(dp8
I0
(dp9
sI1
(dp10
sI2
(dp11
sI3
(dp12
sI4
(dp13
sI5
(dp14
sI6
(dp15
sI7
(dp16
sI8
(dp17
sI9
(dp18
sI10
(dp19
sI11
(dp20
sI12
(dp21
sI13
(dp22
sI14
(dp23
sI15
(dp24
sI16
(dp25
sI17
(dp26
sI18
(dp27
sI19
(dp28
sI20
(dp29
sI21
(dp30
sI22
(dp31
sI23
(dp32
sI24
(dp33
sI25
(dp34
sI26
(dp35
sI27
(dp36
sI28
(dp37
sI29
(dp38
sI30
(dp39
sI31
(dp40
sI32
(dp41
sI33
(dp42
sI34
(dp43
sI35
(dp44
sI36
(dp45
sI37
(dp46
sI38
(dp47
sI39
(dp48
sI40
(dp49
sI41
(dp50
sI42
(dp51
sI43
(dp52
sI44
(dp53
sI45
(dp54
sI46
(dp55
sI47
(dp56
sI48
(dp57
sI49
(dp58
sI50
(dp59
sI51
(dp60
sI52
(dp61
sI53
(dp62
sI54
(dp63
sI55
(dp64
sI56
(dp65
sI57
(dp66
sI58
(dp67
sI59
(dp68
sI60
(dp69
sI61
(dp70
sI62
(dp71
sI63
(dp72
sI64
(dp73
sI65
(dp74
sI66
(dp75
sI67
(dp76
sI68
(dp77
sI69
(dp78
sI70
(dp79
sI71
(dp80
sI72
(dp81
sI73
(dp82
sI74
(dp83
sI75
(dp84
sI76
(dp85
sI77
(dp86
sI78
(dp87
sI79
(dp88
sI80
(dp89
sI81
(dp90
sI82
(dp91
sI83
(dp92
sI84
(dp93
sI85
(dp94
sI86
(dp95
sI87
(dp96
sI88
(dp97
sI89
(dp98
sI90
(dp99
sI91
(dp100
sI92
(dp101
sI93
(dp102
sI94
(dp103
sI95
(dp104
sI96
(dp105
sI97
(dp106
sI98
(dp107
sI99
(dp108
sI100
(dp109
sI101
(dp110
sI102
(dp111
sI103
(dp112
sI104
(dp113
sI105
(dp114
sI106
(dp115
sI107
(dp116
sI108
(dp117
sI109
(dp118
sI110
(dp119
sI111
(dp120
sI112
(dp121
sI113
(dp122
sI114
(dp123
sI115
(dp124
sI116
(dp125
ssS'node_dict_factory'
p126
c__builtin__
dict
p127
sS'edge_attr_dict_factory'
p128
g127
sS'edge'
p129
(dp130
I0
(dp131
I1
(dp132
sI2
(dp133
sI3
(dp134
sI4
(dp135
sI5
(dp136
sI102
(dp137
sI43
(dp138
sI108
(dp139
sI109
(dp140
sI79
(dp141
sI85
(dp142
ssI1
(dp143
I0
g132
sI3
(dp144
sI4
(dp145
sI5
(dp146
sI60
(dp147
sI56
(dp148
sI28
(dp149
ssI2
(dp150
I0
g133
sI32
(dp151
sI3
(dp152
sI4
(dp153
sI5
(dp154
sI99
(dp155
sI52
(dp156
sI53
(dp157
sI54
(dp158
sI55
(dp159
sI89
(dp160
sI58
(dp161
sI28
(dp162
ssI3
(dp163
I0
g134
sI1
g144
sI2
g152
sI99
(dp164
sI4
(dp165
sI5
(dp166
sI43
(dp167
sI76
(dp168
sI77
(dp169
sI81
(dp170
sI82
(dp171
sI84
(dp172
sI85
(dp173
sI86
(dp174
sI23
(dp175
ssI4
(dp176
I0
g135
sI1
g145
sI2
g153
sI3
g165
sI112
(dp177
sI69
(dp178
sI103
(dp179
sI40
(dp180
sI80
(dp181
sI74
(dp182
sI101
(dp183
sI78
(dp184
sI47
(dp185
sI48
(dp186
sI92
(dp187
sI113
(dp188
sI105
(dp189
sI104
(dp190
sI91
(dp191
sI28
(dp192
sI95
(dp193
ssI5
(dp194
I0
g136
sI1
g146
sI2
g154
sI3
g166
sI102
(dp195
sI67
(dp196
sI44
(dp197
sI46
(dp198
sI48
(dp199
sI51
(dp200
sI52
(dp201
sI53
(dp202
sI54
(dp203
sI87
(dp204
sI28
(dp205
sI63
(dp206
ssI6
(dp207
I98
(dp208
sI102
(dp209
sI7
(dp210
sI8
(dp211
sI9
(dp212
sI42
(dp213
sI44
(dp214
sI45
(dp215
sI46
(dp216
sI111
(dp217
sI49
(dp218
sI114
(dp219
sI115
(dp220
sI116
(dp221
ssI7
(dp222
I100
(dp223
sI101
(dp224
sI6
g210
sI104
(dp225
sI10
(dp226
sI83
(dp227
sI85
(dp228
sI89
(dp229
sI87
(dp230
sI57
(dp231
sI60
(dp232
sI106
(dp233
ssI8
(dp234
I97
(dp235
sI6
g211
sI104
(dp236
sI74
(dp237
sI108
(dp238
sI109
(dp239
sI48
(dp240
sI50
(dp241
sI52
(dp242
sI53
(dp243
sI54
(dp244
sI106
(dp245
ssI9
(dp246
I67
(dp247
sI6
g212
sI103
(dp248
sI105
(dp249
sI14
(dp250
sI111
(dp251
sI115
(dp252
sI52
(dp253
sI53
(dp254
sI54
(dp255
sI116
(dp256
ssI10
(dp257
I101
(dp258
sI103
(dp259
sI105
(dp260
sI106
(dp261
sI7
g226
sI12
(dp262
sI79
(dp263
sI23
(dp264
ssI11
(dp265
I64
(dp266
sI103
(dp267
sI74
(dp268
sI107
(dp269
sI12
(dp270
sI13
(dp271
sI111
(dp272
sI114
(dp273
sI115
(dp274
sI116
(dp275
sI86
(dp276
sI89
(dp277
sI63
(dp278
ssI12
(dp279
I77
(dp280
sI39
(dp281
sI76
(dp282
sI10
g262
sI11
g270
sI44
(dp283
sI45
(dp284
sI46
(dp285
sI13
(dp286
sI82
(dp287
sI84
(dp288
sI91
(dp289
sI93
(dp290
ssI13
(dp291
I42
(dp292
sI11
g271
sI12
g286
sI56
(dp293
sI61
(dp294
sI62
(dp295
ssI14
(dp296
I9
g250
sI108
(dp297
sI109
(dp298
sI15
(dp299
sI16
(dp300
sI81
(dp301
sI82
(dp302
sI84
(dp303
sI87
(dp304
ssI15
(dp305
I96
(dp306
sI97
(dp307
sI67
(dp308
sI36
(dp309
sI102
(dp310
sI70
(dp311
sI91
(dp312
sI41
(dp313
sI75
(dp314
sI14
g299
sI17
(dp315
sI82
(dp316
sI20
(dp317
sI21
(dp318
sI86
(dp319
sI73
(dp320
sI88
(dp321
sI89
(dp322
sI59
(dp323
sI93
(dp324
sI100
(dp325
ssI16
(dp326
I14
g300
sI48
(dp327
sI49
(dp328
sI51
(dp329
sI52
(dp330
sI53
(dp331
sI54
(dp332
sI30
(dp333
sI63
(dp334
ssI17
(dp335
I64
(dp336
sI41
(dp337
sI15
g315
sI18
(dp338
sI19
(dp339
sI20
(dp340
sI21
(dp341
sI55
(dp342
ssI18
(dp343
I83
(dp344
sI36
(dp345
sI104
(dp346
sI105
(dp347
sI106
(dp348
sI75
(dp349
sI44
(dp350
sI46
(dp351
sI17
g338
sI19
(dp352
sI20
(dp353
sI21
(dp354
sI87
(dp355
sI88
(dp356
sI84
(dp357
sI58
(dp358
sI95
(dp359
sI85
(dp360
ssI19
(dp361
I65
(dp362
sI66
(dp363
sI100
(dp364
sI69
(dp365
sI49
(dp366
sI41
(dp367
sI75
(dp368
sI108
(dp369
sI109
(dp370
sI110
(dp371
sI47
(dp372
sI17
g339
sI18
g352
sI20
(dp373
sI57
(dp374
sI52
(dp375
sI95
(dp376
sI61
(dp377
sI62
(dp378
sI63
(dp379
ssI20
(dp380
I15
g317
sI17
g340
sI18
g353
sI19
g373
sI36
(dp381
sI44
(dp382
sI48
(dp383
sI50
(dp384
sI51
(dp385
sI52
(dp386
sI56
(dp387
sI61
(dp388
sI63
(dp389
sI64
(dp390
sI66
(dp391
sI69
(dp392
sI71
(dp393
sI72
(dp394
sI75
(dp395
sI78
(dp396
sI80
(dp397
sI88
(dp398
sI89
(dp399
sI90
(dp400
sI110
(dp401
ssI21
(dp402
I36
(dp403
sI102
(dp404
sI49
(dp405
sI50
(dp406
sI15
g318
sI17
g341
sI18
g354
sI31
(dp407
ssI22
(dp408
I56
(dp409
sI50
(dp410
sI51
(dp411
sI53
(dp412
sI54
(dp413
sI23
(dp414
sI24
(dp415
ssI23
(dp416
I57
(dp417
sI10
g264
sI3
g175
sI22
g414
ssI24
(dp418
I102
(dp419
sI39
(dp420
sI106
(dp421
sI75
(dp422
sI108
(dp423
sI109
(dp424
sI48
(dp425
sI88
(dp426
sI90
(dp427
sI22
g415
sI56
(dp428
sI57
(dp429
sI58
(dp430
sI29
(dp431
ssI25
(dp432
I65
(dp433
sI66
(dp434
sI99
(dp435
sI100
(dp436
sI101
(dp437
sI103
(dp438
sI104
(dp439
sI105
(dp440
sI106
(dp441
sI75
(dp442
sI76
(dp443
sI77
(dp444
sI112
(dp445
sI114
(dp446
sI83
(dp447
sI116
(dp448
sI87
(dp449
sI88
(dp450
sI57
(dp451
sI26
(dp452
sI61
(dp453
ssI26
(dp454
I67
(dp455
sI102
(dp456
sI76
(dp457
sI43
(dp458
sI44
(dp459
sI45
(dp460
sI49
(dp461
sI50
(dp462
sI51
(dp463
sI86
(dp464
sI25
g452
sI58
(dp465
sI27
(dp466
sI61
(dp467
ssI27
(dp468
I69
(dp469
sI103
(dp470
sI40
(dp471
sI110
(dp472
sI104
(dp473
sI26
g466
sI95
(dp474
ssI28
(dp475
I1
g149
sI2
g162
sI99
(dp476
sI4
g192
sI5
g205
sI102
(dp477
sI95
(dp478
sI113
(dp479
sI86
(dp480
sI63
(dp481
sI69
(dp482
ssI29
(dp483
I32
(dp484
sI33
(dp485
sI98
(dp486
sI67
(dp487
sI102
(dp488
sI43
(dp489
sI44
(dp490
sI45
(dp491
sI46
(dp492
sI49
(dp493
sI86
(dp494
sI24
g431
sI89
(dp495
sI30
(dp496
sI31
(dp497
ssI30
(dp498
I65
(dp499
sI66
(dp500
sI104
(dp501
sI61
(dp502
sI16
g333
sI115
(dp503
sI57
(dp504
sI58
(dp505
sI60
(dp506
sI29
g496
sI62
(dp507
ssI31
(dp508
I32
(dp509
sI34
(dp510
sI108
(dp511
sI42
(dp512
sI107
(dp513
sI44
(dp514
sI77
(dp515
sI110
(dp516
sI109
(dp517
sI114
(dp518
sI52
(dp519
sI21
g407
sI54
(dp520
sI88
(dp521
sI116
(dp522
sI111
(dp523
sI29
g497
ssI32
(dp524
I33
(dp525
sI2
g151
sI69
(dp526
sI34
(dp527
sI49
(dp528
sI95
(dp529
sI29
g484
sI31
g509
ssI33
(dp530
I32
g525
sI34
(dp531
sI35
(dp532
sI74
(dp533
sI107
(dp534
sI108
(dp535
sI49
(dp536
sI52
(dp537
sI29
g485
ssI34
(dp538
I32
g527
sI33
g531
sI97
(dp539
sI71
(dp540
sI108
(dp541
sI43
(dp542
sI44
(dp543
sI46
(dp544
sI111
(dp545
sI53
(dp546
sI54
(dp547
sI31
g510
ssI35
(dp548
I33
g532
sI38
(dp549
sI49
(dp550
sI50
(dp551
sI51
(dp552
sI57
(dp553
sI60
(dp554
sI61
(dp555
sI64
(dp556
sI66
(dp557
sI72
(dp558
sI86
(dp559
sI98
(dp560
sI100
(dp561
sI104
(dp562
sI105
(dp563
sI110
(dp564
sI111
(dp565
sI112
(dp566
sI113
(dp567
sI115
(dp568
sI116
(dp569
ssI36
(dp570
I114
(dp571
sI43
(dp572
sI45
(dp573
sI110
(dp574
sI15
g309
sI18
g345
sI115
(dp575
sI20
g381
sI21
g403
sI54
(dp576
sI116
(dp577
sI111
(dp578
sI53
(dp579
ssI37
(dp580
I38
(dp581
sI41
(dp582
sI57
(dp583
sI58
(dp584
sI59
(dp585
sI70
(dp586
sI71
(dp587
sI76
(dp588
sI81
(dp589
sI82
(dp590
sI84
(dp591
sI86
(dp592
sI87
(dp593
sI89
(dp594
sI92
(dp595
sI96
(dp596
sI98
(dp597
sI99
(dp598
sI100
(dp599
sI101
(dp600
sI102
(dp601
sI109
(dp602
sI112
(dp603
sI113
(dp604
sI114
(dp605
sI115
(dp606
ssI38
(dp607
I98
(dp608
sI35
g549
sI100
(dp609
sI37
g581
sI42
(dp610
sI45
(dp611
sI46
(dp612
sI112
(dp613
sI99
(dp614
sI86
(dp615
sI101
(dp616
ssI39
(dp617
I69
(dp618
sI72
(dp619
sI105
(dp620
sI106
(dp621
sI12
g281
sI77
(dp622
sI85
(dp623
sI24
g420
sI58
(dp624
sI59
(dp625
sI61
(dp626
sI95
(dp627
ssI40
(dp628
I51
(dp629
sI50
(dp630
sI27
g471
sI4
g180
ssI41
(dp631
I64
(dp632
sI37
g582
sI43
(dp633
sI45
(dp634
sI15
g313
sI17
g337
sI19
g367
sI56
(dp635
ssI42
(dp636
I45
(dp637
sI38
g610
sI13
g292
sI6
g213
sI31
g512
ssI43
(dp638
I0
g138
sI34
g542
sI3
g167
sI36
g572
sI41
g633
sI45
(dp639
sI26
g458
sI29
g489
ssI44
(dp640
I34
g543
sI5
g197
sI6
g214
sI12
g283
sI46
(dp641
sI18
g350
sI20
g382
sI26
g459
sI29
g490
sI31
g514
ssI45
(dp642
I36
g573
sI6
g215
sI38
g611
sI41
g634
sI42
g637
sI43
g639
sI12
g284
sI46
(dp643
sI26
g460
sI29
g491
ssI46
(dp644
I34
g544
sI6
g216
sI38
g612
sI44
g641
sI12
g285
sI45
g643
sI18
g351
sI29
g492
sI5
g198
ssI47
(dp645
I19
g372
sI4
g185
ssI48
(dp646
I4
g186
sI5
g199
sI8
g240
sI16
g327
sI50
(dp647
sI51
(dp648
sI20
g383
sI53
(dp649
sI24
g425
ssI49
(dp650
I32
g528
sI33
g536
sI35
g550
sI6
g218
sI16
g328
sI50
(dp651
sI19
g366
sI21
g405
sI26
g461
sI29
g493
sI51
(dp652
ssI50
(dp653
I35
g551
sI49
g651
sI8
g241
sI48
g647
sI40
g630
sI51
(dp654
sI20
g384
sI21
g406
sI22
g410
sI26
g462
ssI51
(dp655
I48
g648
sI35
g552
sI5
g200
sI40
g629
sI16
g329
sI49
g652
sI50
g654
sI20
g385
sI22
g411
sI26
g463
ssI52
(dp656
I33
g537
sI2
g156
sI5
g201
sI8
g242
sI9
g253
sI16
g330
sI19
g375
sI20
g386
sI53
(dp657
sI31
g519
ssI53
(dp658
I48
g649
sI34
g546
sI36
g579
sI5
g202
sI8
g243
sI9
g254
sI2
g157
sI16
g331
sI52
g657
sI22
g412
sI54
(dp659
ssI54
(dp660
I34
g547
sI36
g576
sI5
g203
sI8
g244
sI9
g255
sI2
g158
sI16
g332
sI53
g659
sI22
g413
sI31
g520
ssI55
(dp661
I64
(dp662
sI65
(dp663
sI2
g159
sI66
(dp664
sI17
g342
sI58
(dp665
sI59
(dp666
sI60
(dp667
sI61
(dp668
sI62
(dp669
ssI56
(dp670
I1
g148
sI66
(dp671
sI41
g635
sI13
g293
sI20
g387
sI22
g409
sI24
g428
sI58
(dp672
sI59
(dp673
sI60
(dp674
sI63
(dp675
ssI57
(dp676
I64
(dp677
sI65
(dp678
sI66
(dp679
sI35
g553
sI37
g583
sI7
g231
sI19
g374
sI62
(dp680
sI23
g417
sI24
g429
sI25
g451
sI30
g504
ssI58
(dp681
I65
(dp682
sI2
g161
sI37
g584
sI39
g624
sI66
(dp683
sI56
g672
sI18
g358
sI62
(dp684
sI55
g665
sI24
g430
sI26
g465
sI59
(dp685
sI60
(dp686
sI30
g505
ssI59
(dp687
I65
(dp688
sI66
(dp689
sI37
g585
sI39
g625
sI15
g323
sI55
g666
sI56
g673
sI58
g685
ssI60
(dp690
I1
g147
sI35
g554
sI65
(dp691
sI7
g232
sI55
g667
sI56
g674
sI58
g686
sI30
g506
ssI61
(dp692
I35
g555
sI39
g626
sI13
g294
sI19
g377
sI20
g388
sI62
(dp693
sI55
g668
sI25
g453
sI26
g467
sI30
g502
ssI62
(dp694
I65
(dp695
sI13
g295
sI19
g378
sI55
g669
sI57
g680
sI58
g684
sI61
g693
sI30
g507
ssI63
(dp696
I64
(dp697
sI5
g206
sI11
g278
sI16
g334
sI19
g379
sI20
g389
sI56
g675
sI28
g481
ssI64
(dp698
I35
g556
sI41
g632
sI11
g266
sI17
g336
sI20
g390
sI55
g662
sI57
g677
sI63
g697
ssI65
(dp699
I66
(dp700
sI55
g663
sI19
g362
sI62
g695
sI57
g678
sI25
g433
sI58
g682
sI59
g688
sI60
g691
sI30
g499
ssI66
(dp701
I65
g700
sI35
g557
sI19
g363
sI20
g391
sI57
g679
sI55
g664
sI56
g671
sI25
g434
sI58
g683
sI59
g689
sI30
g500
ssI67
(dp702
I96
(dp703
sI5
g196
sI70
(dp704
sI9
g247
sI106
(dp705
sI108
(dp706
sI109
(dp707
sI15
g308
sI112
(dp708
sI81
(dp709
sI102
(dp710
sI85
(dp711
sI86
(dp712
sI105
(dp713
sI89
(dp714
sI26
g455
sI29
g487
ssI68
(dp715
I73
(dp716
sI82
(dp717
sI83
(dp718
sI84
(dp719
sI86
(dp720
sI89
(dp721
ssI69
(dp722
I32
g526
sI4
g178
sI39
g618
sI19
g365
sI20
g392
sI85
(dp723
sI27
g469
sI28
g482
ssI70
(dp724
I67
g704
sI37
g586
sI73
(dp725
sI15
g311
sI81
(dp726
sI83
(dp727
sI90
(dp728
ssI71
(dp729
I92
(dp730
sI34
g540
sI20
g393
sI37
g587
sI93
(dp731
ssI72
(dp732
I35
g558
sI39
g619
sI20
g394
sI90
(dp733
sI91
(dp734
sI92
(dp735
sI93
(dp736
ssI73
(dp737
I74
(dp738
sI75
(dp739
sI68
g716
sI70
g725
sI15
g320
ssI74
(dp740
I33
g533
sI4
g182
sI8
g237
sI73
g738
sI11
g268
sI76
(dp741
sI88
(dp742
sI93
(dp743
ssI75
(dp744
I84
(dp745
sI73
g739
sI77
(dp746
sI15
g314
sI88
(dp747
sI18
g349
sI19
g368
sI20
g395
sI87
(dp748
sI24
g422
sI25
g442
sI90
(dp749
sI91
(dp750
sI92
(dp751
sI93
(dp752
ssI76
(dp753
I3
g168
sI37
g588
sI74
g741
sI12
g282
sI25
g443
sI26
g457
sI91
(dp754
sI90
(dp755
ssI77
(dp756
I3
g169
sI39
g622
sI75
g746
sI12
g280
sI25
g444
sI91
(dp757
sI31
g515
ssI78
(dp758
I4
g184
sI83
(dp759
sI84
(dp760
sI85
(dp761
sI87
(dp762
sI20
g396
ssI79
(dp763
I0
g141
sI10
g263
sI81
(dp764
sI83
(dp765
sI84
(dp766
sI85
(dp767
sI87
(dp768
ssI80
(dp769
I92
(dp770
sI20
g397
sI91
(dp771
sI4
g181
ssI81
(dp772
I67
g709
sI37
g589
sI70
g726
sI14
g301
sI79
g764
sI3
g170
sI92
(dp773
sI93
(dp774
ssI82
(dp775
I3
g171
sI68
g717
sI37
g590
sI12
g287
sI14
g302
sI15
g316
sI83
(dp776
sI92
(dp777
sI93
(dp778
ssI83
(dp779
I68
g718
sI70
g727
sI7
g227
sI82
g776
sI78
g759
sI79
g765
sI18
g344
sI84
(dp780
sI25
g447
ssI84
(dp781
I3
g172
sI68
g719
sI37
g591
sI75
g745
sI12
g288
sI14
g303
sI79
g766
sI18
g357
sI83
g780
sI78
g760
sI87
(dp782
ssI85
(dp783
I0
g142
sI67
g711
sI69
g723
sI39
g623
sI7
g228
sI78
g761
sI79
g767
sI18
g360
sI3
g173
ssI86
(dp784
I67
g712
sI3
g174
sI68
g720
sI37
g592
sI38
g615
sI11
g276
sI15
g319
sI35
g559
sI89
(dp785
sI26
g464
sI28
g480
sI29
g494
ssI87
(dp786
I37
g593
sI7
g230
sI75
g748
sI14
g304
sI79
g768
sI18
g355
sI84
g782
sI78
g762
sI25
g449
sI5
g204
ssI88
(dp787
I74
g742
sI75
g747
sI15
g321
sI18
g356
sI20
g398
sI24
g426
sI25
g450
sI31
g521
ssI89
(dp788
I2
g160
sI67
g714
sI68
g721
sI37
g594
sI7
g229
sI11
g277
sI15
g322
sI20
g399
sI86
g785
sI29
g495
ssI90
(dp789
I70
g728
sI72
g733
sI75
g749
sI76
g755
sI20
g400
sI24
g427
sI92
(dp790
sI93
(dp791
ssI91
(dp792
I4
g191
sI72
g734
sI12
g289
sI75
g750
sI76
g754
sI77
g757
sI15
g312
sI80
g771
sI92
(dp793
ssI92
(dp794
I4
g187
sI37
g595
sI71
g730
sI72
g735
sI75
g751
sI80
g770
sI81
g773
sI82
g777
sI90
g790
sI91
g793
sI93
(dp795
ssI93
(dp796
I71
g731
sI72
g736
sI74
g743
sI75
g752
sI12
g290
sI15
g324
sI81
g774
sI82
g778
sI90
g791
sI92
g795
ssI94
(dp797
I97
(dp798
sI98
(dp799
sI99
(dp800
sI101
(dp801
sI109
(dp802
sI112
(dp803
sI113
(dp804
ssI95
(dp805
I32
g529
sI4
g193
sI39
g627
sI107
(dp806
sI111
(dp807
sI18
g359
sI19
g376
sI27
g474
sI28
g478
ssI96
(dp808
I67
g703
sI108
(dp809
sI37
g596
sI15
g306
ssI97
(dp810
I34
g539
sI8
g235
sI107
(dp811
sI109
(dp812
sI15
g307
sI114
(dp813
sI115
(dp814
sI116
(dp815
sI94
g798
ssI98
(dp816
I35
g560
sI6
g208
sI38
g608
sI112
(dp817
sI113
(dp818
sI101
(dp819
sI29
g486
sI94
g799
sI37
g597
ssI99
(dp820
I2
g155
sI3
g164
sI37
g598
sI38
g614
sI113
(dp821
sI25
g435
sI28
g476
sI94
g800
sI101
(dp822
ssI100
(dp823
I35
g561
sI37
g599
sI38
g609
sI7
g223
sI15
g325
sI113
(dp824
sI19
g364
sI25
g436
sI101
(dp825
ssI101
(dp826
I100
g825
sI98
g819
sI99
g822
sI4
g183
sI37
g600
sI38
g616
sI7
g224
sI10
g258
sI112
(dp827
sI113
(dp828
sI25
g437
sI94
g801
ssI102
(dp829
I0
g137
sI67
g710
sI5
g195
sI6
g209
sI15
g310
sI21
g404
sI24
g419
sI26
g456
sI28
g477
sI29
g488
sI37
g601
ssI103
(dp830
I107
(dp831
sI4
g179
sI9
g248
sI10
g259
sI11
g267
sI105
(dp832
sI25
g438
sI27
g470
sI106
(dp833
ssI104
(dp834
I35
g562
sI4
g190
sI7
g225
sI8
g236
sI105
(dp835
sI18
g346
sI25
g439
sI27
g473
sI30
g501
ssI105
(dp836
I35
g563
sI4
g189
sI39
g620
sI104
g835
sI9
g249
sI10
g260
sI103
g832
sI18
g347
sI67
g713
sI25
g440
sI106
(dp837
ssI106
(dp838
I67
g705
sI39
g621
sI8
g245
sI105
g837
sI10
g261
sI103
g833
sI18
g348
sI24
g421
sI25
g441
sI7
g233
ssI107
(dp839
I33
g534
sI97
g811
sI103
g831
sI11
g269
sI111
(dp840
sI31
g513
sI95
g806
ssI108
(dp841
I96
g809
sI33
g535
sI34
g541
sI67
g706
sI0
g139
sI8
g238
sI109
(dp842
sI14
g297
sI19
g369
sI24
g423
sI31
g511
ssI109
(dp843
I0
g140
sI97
g812
sI67
g707
sI37
g602
sI8
g239
sI108
g842
sI14
g298
sI19
g370
sI24
g424
sI94
g802
sI31
g517
ssI110
(dp844
I35
g564
sI36
g574
sI114
(dp845
sI19
g371
sI20
g401
sI27
g472
sI31
g516
ssI111
(dp846
I34
g545
sI35
g565
sI36
g578
sI6
g217
sI9
g251
sI11
g272
sI114
(dp847
sI107
g840
sI95
g807
sI31
g523
ssI112
(dp848
I98
g817
sI67
g708
sI4
g177
sI37
g603
sI38
g613
sI113
(dp849
sI35
g566
sI25
g445
sI94
g803
sI101
g827
ssI113
(dp850
I98
g818
sI99
g821
sI100
g824
sI37
g604
sI112
g849
sI35
g567
sI4
g188
sI28
g479
sI94
g804
sI101
g828
ssI114
(dp851
I97
g813
sI36
g571
sI37
g605
sI6
g219
sI11
g273
sI110
g845
sI111
g847
sI115
(dp852
sI116
(dp853
sI25
g446
sI31
g518
ssI115
(dp854
I97
g814
sI35
g568
sI36
g575
sI37
g606
sI6
g220
sI9
g252
sI11
g274
sI114
g852
sI116
(dp855
sI30
g503
ssI116
(dp856
I97
g815
sI35
g569
sI36
g577
sI6
g221
sI9
g256
sI11
g275
sI114
g853
sI115
g855
sI25
g448
sI31
g522
sssS'graph'
p857
(dp858
sS'adjlist_dict_factory'
p859
g127
sS'adj'
p860
g130
sbag2
(g3
g4
NtRp861
(dp862
g7
(dp863
I0
(dp864
sI1
(dp865
sI2
(dp866
sI3
(dp867
sI4
(dp868
sI5
(dp869
sI6
(dp870
sI7
(dp871
sI8
(dp872
sI9
(dp873
sI10
(dp874
sI11
(dp875
sI12
(dp876
sI13
(dp877
sI14
(dp878
sI15
(dp879
sI16
(dp880
sI17
(dp881
sI18
(dp882
sI19
(dp883
sI20
(dp884
sI21
(dp885
sI22
(dp886
sI23
(dp887
sI24
(dp888
sI25
(dp889
sI26
(dp890
sI27
(dp891
sI28
(dp892
sI29
(dp893
sI30
(dp894
sI31
(dp895
sI32
(dp896
sI33
(dp897
sI34
(dp898
sI35
(dp899
sI36
(dp900
sI37
(dp901
sI38
(dp902
sI39
(dp903
sI40
(dp904
sI41
(dp905
sI42
(dp906
sI43
(dp907
sI44
(dp908
sI45
(dp909
sI46
(dp910
sI47
(dp911
sI48
(dp912
sI49
(dp913
sI50
(dp914
sI51
(dp915
sI52
(dp916
sI53
(dp917
sI54
(dp918
sI55
(dp919
sI56
(dp920
sI57
(dp921
sI58
(dp922
sI59
(dp923
sI60
(dp924
sI61
(dp925
sI62
(dp926
sI63
(dp927
sI64
(dp928
sI65
(dp929
sI66
(dp930
sI67
(dp931
sI68
(dp932
sI69
(dp933
sI70
(dp934
sI71
(dp935
sI72
(dp936
sI73
(dp937
sI74
(dp938
sI75
(dp939
sI76
(dp940
sI77
(dp941
sI78
(dp942
sI79
(dp943
sI80
(dp944
sI81
(dp945
sI82
(dp946
sI83
(dp947
sI84
(dp948
sI85
(dp949
sI86
(dp950
sI87
(dp951
sI88
(dp952
sI89
(dp953
sI90
(dp954
sI91
(dp955
sI92
(dp956
sI93
(dp957
sI94
(dp958
sI95
(dp959
sI96
(dp960
sI97
(dp961
sI98
(dp962
sI99
(dp963
sI100
(dp964
sI101
(dp965
sI102
(dp966
sI103
(dp967
sI104
(dp968
sI105
(dp969
sI106
(dp970
sI107
(dp971
sI108
(dp972
sI109
(dp973
sI110
(dp974
sI111
(dp975
sI112
(dp976
sI113
(dp977
sI114
(dp978
sI115
(dp979
ssg126
g127
sg128
g127
sg129
(dp980
I0
(dp981
I1
(dp982
sI2
(dp983
sI3
(dp984
sI4
(dp985
sI5
(dp986
sI76
(dp987
sI75
(dp988
sI44
(dp989
sI110
(dp990
sI79
(dp991
sI80
(dp992
sI81
(dp993
sI82
(dp994
sI89
(dp995
sI88
(dp996
sI68
(dp997
sI95
(dp998
sI92
(dp999
sI111
(dp1000
sI69
(dp1001
ssI1
(dp1002
I0
g982
sI3
(dp1003
sI4
(dp1004
sI5
(dp1005
sI50
(dp1006
sI52
(dp1007
sI56
(dp1008
sI28
(dp1009
ssI2
(dp1010
I0
g983
sI32
(dp1011
sI67
(dp1012
sI3
(dp1013
sI4
(dp1014
sI5
(dp1015
sI105
(dp1016
sI49
(dp1017
sI51
(dp1018
sI54
(dp1019
sI87
(dp1020
sI91
(dp1021
sI28
(dp1022
ssI3
(dp1023
I0
g984
sI1
g1003
sI2
g1013
sI67
(dp1024
sI4
(dp1025
sI5
(dp1026
sI72
(dp1027
sI73
(dp1028
sI74
(dp1029
sI108
(dp1030
sI109
(dp1031
sI105
(dp1032
sI23
(dp1033
ssI4
(dp1034
I0
g985
sI1
g1004
sI2
g1014
sI3
g1025
sI100
(dp1035
sI101
(dp1036
sI70
(dp1037
sI71
(dp1038
sI40
(dp1039
sI46
(dp1040
sI47
(dp1041
sI48
(dp1042
sI104
(dp1043
sI99
(dp1044
sI85
(dp1045
sI28
(dp1046
sI102
(dp1047
ssI5
(dp1048
I0
g986
sI1
g1005
sI2
g1015
sI3
g1026
sI68
(dp1049
sI65
(dp1050
sI60
(dp1051
sI75
(dp1052
sI76
(dp1053
sI46
(dp1054
sI47
(dp1055
sI48
(dp1056
sI81
(dp1057
sI82
(dp1058
sI96
(dp1059
sI59
(dp1060
sI28
(dp1061
sI61
(dp1062
ssI6
(dp1063
I69
(dp1064
sI7
(dp1065
sI8
(dp1066
sI9
(dp1067
sI42
(dp1068
sI75
(dp1069
sI76
(dp1070
sI82
(dp1071
sI46
(dp1072
sI47
(dp1073
sI48
(dp1074
sI81
(dp1075
sI50
(dp1076
ssI7
(dp1077
I66
(dp1078
sI115
(dp1079
sI74
(dp1080
sI6
g1065
sI10
(dp1081
sI107
(dp1082
sI114
(dp1083
sI51
(dp1084
sI52
(dp1085
sI106
(dp1086
sI88
(dp1087
sI89
(dp1088
sI92
(dp1089
sI42
(dp1090
ssI8
(dp1091
I6
g1066
sI49
(dp1092
sI50
(dp1093
sI53
(dp1094
sI54
(dp1095
sI55
(dp1096
sI74
(dp1097
sI79
(dp1098
sI80
(dp1099
sI88
(dp1100
sI89
(dp1101
sI92
(dp1102
sI95
(dp1103
sI96
(dp1104
sI97
(dp1105
sI98
(dp1106
sI101
(dp1107
sI102
(dp1108
sI108
(dp1109
sI109
(dp1110
sI110
(dp1111
sI112
(dp1112
sI113
(dp1113
ssI9
(dp1114
I64
(dp1115
sI96
(dp1116
sI6
g1067
sI73
(dp1117
sI106
(dp1118
sI107
(dp1119
sI44
(dp1120
sI45
(dp1121
sI14
(dp1122
sI109
(dp1123
sI80
(dp1124
sI108
(dp1125
sI84
(dp1126
sI55
(dp1127
sI111
(dp1128
sI57
(dp1129
sI58
(dp1130
sI59
(dp1131
sI60
(dp1132
sI61
(dp1133
ssI10
(dp1134
I96
(dp1135
sI97
(dp1136
sI98
(dp1137
sI7
g1081
sI72
(dp1138
sI73
(dp1139
sI12
(dp1140
sI109
(dp1141
sI51
(dp1142
sI23
(dp1143
ssI11
(dp1144
I101
(dp1145
sI70
(dp1146
sI71
(dp1147
sI73
(dp1148
sI103
(dp1149
sI12
(dp1150
sI13
(dp1151
sI77
(dp1152
sI45
(dp1153
sI85
(dp1154
sI56
(dp1155
sI102
(dp1156
ssI12
(dp1157
I97
(dp1158
sI98
(dp1159
sI11
g1150
sI39
(dp1160
sI10
g1140
sI43
(dp1161
sI108
(dp1162
sI13
(dp1163
sI78
(dp1164
sI109
(dp1165
sI74
(dp1166
sI94
(dp1167
ssI13
(dp1168
I49
(dp1169
sI11
g1151
sI12
g1163
sI52
(dp1170
ssI14
(dp1171
I65
(dp1172
sI9
g1122
sI106
(dp1173
sI107
(dp1174
sI15
(dp1175
sI16
(dp1176
sI50
(dp1177
ssI15
(dp1178
I14
g1175
sI17
(dp1179
sI20
(dp1180
sI21
(dp1181
sI36
(dp1182
sI41
(dp1183
sI52
(dp1184
sI57
(dp1185
sI58
(dp1186
sI59
(dp1187
sI60
(dp1188
sI61
(dp1189
sI64
(dp1190
sI68
(dp1191
sI69
(dp1192
sI75
(dp1193
sI76
(dp1194
sI81
(dp1195
sI95
(dp1196
sI99
(dp1197
sI100
(dp1198
sI101
(dp1199
sI102
(dp1200
sI106
(dp1201
sI107
(dp1202
sI110
(dp1203
sI111
(dp1204
sI114
(dp1205
ssI16
(dp1206
I68
(dp1207
sI69
(dp1208
sI81
(dp1209
sI82
(dp1210
sI14
g1176
sI49
(dp1211
sI50
(dp1212
sI53
(dp1213
sI54
(dp1214
sI87
(dp1215
sI30
(dp1216
ssI17
(dp1217
I41
(dp1218
sI15
g1179
sI18
(dp1219
sI19
(dp1220
sI20
(dp1221
sI21
(dp1222
sI56
(dp1223
ssI18
(dp1224
I36
(dp1225
sI111
(dp1226
sI44
(dp1227
sI110
(dp1228
sI47
(dp1229
sI17
g1219
sI19
(dp1230
sI20
(dp1231
sI21
(dp1232
sI56
(dp1233
sI91
(dp1234
sI53
(dp1235
ssI19
(dp1236
I41
(dp1237
sI106
(dp1238
sI17
g1220
sI18
g1230
sI83
(dp1239
sI20
(dp1240
sI53
(dp1241
sI57
(dp1242
sI52
(dp1243
sI58
(dp1244
ssI20
(dp1245
I65
(dp1246
sI99
(dp1247
sI36
(dp1248
sI72
(dp1249
sI87
(dp1250
sI50
(dp1251
sI15
g1180
sI17
g1221
sI18
g1231
sI19
g1240
sI84
(dp1252
sI85
(dp1253
sI55
(dp1254
sI100
(dp1255
sI58
(dp1256
sI63
(dp1257
ssI21
(dp1258
I68
(dp1259
sI75
(dp1260
sI76
(dp1261
sI82
(dp1262
sI15
g1181
sI17
g1222
sI18
g1232
sI36
(dp1263
sI31
(dp1264
ssI22
(dp1265
I44
(dp1266
sI45
(dp1267
sI56
(dp1268
sI53
(dp1269
sI54
(dp1270
sI23
(dp1271
sI24
(dp1272
ssI23
(dp1273
I56
(dp1274
sI10
g1143
sI3
g1033
sI22
g1271
ssI24
(dp1275
I68
(dp1276
sI39
(dp1277
sI47
(dp1278
sI48
(dp1279
sI51
(dp1280
sI22
g1272
sI29
(dp1281
ssI25
(dp1282
I56
(dp1283
sI26
(dp1284
sI75
(dp1285
sI76
(dp1286
sI54
(dp1287
ssI26
(dp1288
I59
(dp1289
sI68
(dp1290
sI69
(dp1291
sI74
(dp1292
sI45
(dp1293
sI46
(dp1294
sI48
(dp1295
sI81
(dp1296
sI82
(dp1297
sI56
(dp1298
sI25
g1284
sI27
(dp1299
ssI27
(dp1300
I26
g1299
sI40
(dp1301
sI52
(dp1302
sI54
(dp1303
sI55
(dp1304
sI56
(dp1305
sI57
(dp1306
sI60
(dp1307
sI73
(dp1308
sI74
(dp1309
sI76
(dp1310
sI80
(dp1311
sI84
(dp1312
sI95
(dp1313
sI96
(dp1314
sI97
(dp1315
sI98
(dp1316
sI101
(dp1317
sI102
(dp1318
sI109
(dp1319
sI110
(dp1320
sI112
(dp1321
ssI28
(dp1322
I1
g1009
sI2
g1022
sI67
(dp1323
sI4
g1046
sI5
g1061
sI70
(dp1324
sI71
(dp1325
sI72
(dp1326
sI73
(dp1327
sI74
(dp1328
sI108
(dp1329
sI109
(dp1330
sI82
(dp1331
sI99
(dp1332
sI85
(dp1333
sI54
(dp1334
sI68
(dp1335
sI58
(dp1336
sI61
(dp1337
sI69
(dp1338
ssI29
(dp1339
I32
(dp1340
sI33
(dp1341
sI69
(dp1342
sI70
(dp1343
sI76
(dp1344
sI75
(dp1345
sI44
(dp1346
sI86
(dp1347
sI24
g1281
sI59
(dp1348
sI30
(dp1349
sI31
(dp1350
ssI30
(dp1351
I67
(dp1352
sI100
(dp1353
sI71
(dp1354
sI75
(dp1355
sI76
(dp1356
sI16
g1216
sI81
(dp1357
sI99
(dp1358
sI56
(dp1359
sI91
(dp1360
sI60
(dp1361
sI29
g1349
ssI31
(dp1362
I32
(dp1363
sI34
(dp1364
sI82
(dp1365
sI101
(dp1366
sI102
(dp1367
sI81
(dp1368
sI104
(dp1369
sI66
(dp1370
sI61
(dp1371
sI49
(dp1372
sI50
(dp1373
sI21
g1264
sI86
(dp1374
sI87
(dp1375
sI29
g1350
ssI32
(dp1376
I33
(dp1377
sI2
g1011
sI115
(dp1378
sI70
(dp1379
sI65
(dp1380
sI105
(dp1381
sI42
(dp1382
sI43
(dp1383
sI108
(dp1384
sI34
(dp1385
sI46
(dp1386
sI79
(dp1387
sI80
(dp1388
sI109
(dp1389
sI106
(dp1390
sI84
(dp1391
sI85
(dp1392
sI86
(dp1393
sI29
g1340
sI31
g1363
ssI33
(dp1394
I29
g1341
sI32
g1377
sI34
(dp1395
sI35
(dp1396
sI45
(dp1397
sI46
(dp1398
sI47
(dp1399
sI48
(dp1400
sI49
(dp1401
sI65
(dp1402
sI71
(dp1403
sI77
(dp1404
sI79
(dp1405
sI80
(dp1406
sI85
(dp1407
sI88
(dp1408
sI89
(dp1409
sI91
(dp1410
sI102
(dp1411
sI103
(dp1412
sI104
(dp1413
sI110
(dp1414
ssI34
(dp1415
I32
g1385
sI33
g1395
sI43
(dp1416
sI45
(dp1417
sI46
(dp1418
sI48
(dp1419
sI49
(dp1420
sI88
(dp1421
sI63
(dp1422
sI31
g1364
ssI35
(dp1423
I64
(dp1424
sI33
g1396
sI38
(dp1425
sI72
(dp1426
sI110
(dp1427
sI79
(dp1428
sI80
(dp1429
sI54
(dp1430
sI56
(dp1431
sI89
(dp1432
sI111
(dp1433
ssI36
(dp1434
I96
(dp1435
sI97
(dp1436
sI43
(dp1437
sI77
(dp1438
sI47
(dp1439
sI49
(dp1440
sI18
g1225
sI20
g1248
sI21
g1263
sI86
(dp1441
sI15
g1182
ssI37
(dp1442
I97
(dp1443
sI66
(dp1444
sI100
(dp1445
sI69
(dp1446
sI38
(dp1447
sI41
(dp1448
sI113
(dp1449
sI84
(dp1450
sI85
(dp1451
sI55
(dp1452
sI57
(dp1453
sI58
(dp1454
sI92
(dp1455
sI63
(dp1456
ssI38
(dp1457
I65
(dp1458
sI35
g1425
sI37
g1447
sI74
(dp1459
sI43
(dp1460
sI46
(dp1461
sI49
(dp1462
sI50
(dp1463
sI83
(dp1464
sI78
(dp1465
sI75
(dp1466
sI92
(dp1467
ssI39
(dp1468
I84
(dp1469
sI96
(dp1470
sI66
(dp1471
sI67
(dp1472
sI100
(dp1473
sI97
(dp1474
sI112
(dp1475
sI103
(dp1476
sI12
g1160
sI99
(dp1477
sI81
(dp1478
sI82
(dp1479
sI83
(dp1480
sI52
(dp1481
sI113
(dp1482
sI55
(dp1483
sI24
g1277
sI57
(dp1484
sI58
(dp1485
ssI40
(dp1486
I48
(dp1487
sI27
g1301
sI4
g1039
sI47
(dp1488
ssI41
(dp1489
I51
(dp1490
sI37
g1448
sI46
(dp1491
sI15
g1183
sI17
g1218
sI50
(dp1492
sI19
g1237
sI53
(dp1493
ssI42
(dp1494
I32
g1382
sI6
g1068
sI7
g1090
ssI43
(dp1495
I32
g1383
sI34
g1416
sI36
g1437
sI38
g1460
sI44
(dp1496
sI12
g1161
sI50
(dp1497
ssI44
(dp1498
I0
g989
sI9
g1120
sI43
g1496
sI18
g1227
sI22
g1266
sI29
g1346
ssI45
(dp1499
I33
g1397
sI34
g1417
sI9
g1121
sI11
g1153
sI47
(dp1500
sI48
(dp1501
sI22
g1267
sI26
g1293
ssI46
(dp1502
I32
g1386
sI33
g1398
sI34
g1418
sI4
g1040
sI5
g1054
sI6
g1072
sI41
g1491
sI47
(dp1503
sI26
g1294
sI38
g1461
ssI47
(dp1504
I33
g1399
sI4
g1041
sI5
g1055
sI6
g1073
sI40
g1488
sI45
g1500
sI46
g1503
sI48
(dp1505
sI18
g1229
sI24
g1278
sI36
g1439
ssI48
(dp1506
I33
g1400
sI34
g1419
sI4
g1042
sI5
g1056
sI6
g1074
sI40
g1487
sI45
g1501
sI47
g1505
sI24
g1279
sI26
g1295
ssI49
(dp1507
I33
g1401
sI2
g1017
sI34
g1420
sI36
g1440
sI38
g1462
sI8
g1092
sI13
g1169
sI16
g1211
sI50
(dp1508
sI31
g1372
ssI50
(dp1509
I1
g1006
sI38
g1463
sI6
g1076
sI8
g1093
sI41
g1492
sI43
g1497
sI14
g1177
sI16
g1212
sI49
g1508
sI20
g1251
sI31
g1373
ssI51
(dp1510
I2
g1018
sI7
g1084
sI41
g1490
sI10
g1142
sI24
g1280
sI57
(dp1511
ssI52
(dp1512
I1
g1007
sI7
g1085
sI39
g1481
sI13
g1170
sI15
g1184
sI19
g1243
sI53
(dp1513
sI27
g1302
ssI53
(dp1514
I54
(dp1515
sI8
g1094
sI41
g1493
sI16
g1213
sI18
g1235
sI19
g1241
sI52
g1513
sI22
g1269
sI57
(dp1516
sI58
(dp1517
ssI54
(dp1518
I2
g1019
sI35
g1430
sI8
g1095
sI16
g1214
sI53
g1515
sI22
g1270
sI55
(dp1519
sI25
g1287
sI27
g1303
sI28
g1334
ssI55
(dp1520
I37
g1452
sI39
g1483
sI8
g1096
sI9
g1127
sI20
g1254
sI54
g1519
sI57
(dp1521
sI58
(dp1522
sI27
g1304
ssI56
(dp1523
I1
g1008
sI35
g1431
sI11
g1155
sI17
g1223
sI18
g1233
sI22
g1268
sI23
g1274
sI25
g1283
sI26
g1298
sI27
g1305
sI30
g1359
ssI57
(dp1524
I51
g1511
sI37
g1453
sI39
g1484
sI9
g1129
sI15
g1185
sI19
g1242
sI53
g1516
sI55
g1521
sI58
(dp1525
sI27
g1306
ssI58
(dp1526
I37
g1454
sI39
g1485
sI9
g1130
sI15
g1186
sI19
g1244
sI20
g1256
sI53
g1517
sI55
g1522
sI57
g1525
sI28
g1336
ssI59
(dp1527
I66
(dp1528
sI67
(dp1529
sI68
(dp1530
sI5
g1060
sI102
(dp1531
sI103
(dp1532
sI104
(dp1533
sI9
g1131
sI15
g1187
sI90
(dp1534
sI100
(dp1535
sI26
g1289
sI95
(dp1536
sI101
(dp1537
sI29
g1348
sI69
(dp1538
ssI60
(dp1539
I65
(dp1540
sI115
(dp1541
sI5
g1051
sI9
g1132
sI79
(dp1542
sI75
(dp1543
sI78
(dp1544
sI15
g1188
sI114
(dp1545
sI83
(dp1546
sI84
(dp1547
sI105
(dp1548
sI27
g1307
sI106
(dp1549
sI30
g1361
ssI61
(dp1550
I64
(dp1551
sI65
(dp1552
sI99
(dp1553
sI5
g1062
sI102
(dp1554
sI97
(dp1555
sI104
(dp1556
sI9
g1133
sI103
(dp1557
sI101
(dp1558
sI78
(dp1559
sI15
g1189
sI81
(dp1560
sI110
(dp1561
sI111
(dp1562
sI28
g1337
sI94
(dp1563
sI31
g1371
ssI62
(dp1564
I66
(dp1565
sI99
(dp1566
sI100
(dp1567
sI70
(dp1568
sI108
(dp1569
sI109
(dp1570
sI67
(dp1571
ssI63
(dp1572
I65
(dp1573
sI34
g1422
sI37
g1456
sI78
(dp1574
sI80
(dp1575
sI20
g1257
ssI64
(dp1576
I35
g1424
sI71
(dp1577
sI9
g1115
sI74
(dp1578
sI15
g1190
sI79
(dp1579
sI61
g1551
ssI65
(dp1580
I32
g1380
sI33
g1402
sI5
g1050
sI38
g1458
sI14
g1172
sI111
(dp1581
sI20
g1246
sI78
(dp1582
sI60
g1540
sI61
g1552
sI63
g1573
ssI66
(dp1583
I99
(dp1584
sI100
(dp1585
sI37
g1444
sI39
g1471
sI7
g1078
sI59
g1528
sI62
g1565
sI31
g1370
ssI67
(dp1586
I2
g1012
sI3
g1024
sI39
g1472
sI99
(dp1587
sI30
g1352
sI59
g1529
sI28
g1323
sI62
g1571
ssI68
(dp1588
I0
g997
sI5
g1049
sI15
g1191
sI16
g1207
sI21
g1259
sI24
g1276
sI26
g1290
sI59
g1530
sI28
g1335
sI69
(dp1589
ssI69
(dp1590
I0
g1001
sI68
g1589
sI37
g1446
sI6
g1064
sI15
g1192
sI16
g1208
sI26
g1291
sI59
g1538
sI28
g1338
sI29
g1342
ssI70
(dp1591
I32
g1379
sI4
g1037
sI11
g1146
sI77
(dp1592
sI83
(dp1593
sI84
(dp1594
sI28
g1324
sI29
g1343
sI62
g1568
ssI71
(dp1595
I64
g1577
sI33
g1403
sI4
g1038
sI72
(dp1596
sI11
g1147
sI28
g1325
sI30
g1354
ssI72
(dp1597
I3
g1027
sI71
g1596
sI10
g1138
sI77
(dp1598
sI35
g1426
sI20
g1249
sI85
(dp1599
sI84
(dp1600
sI28
g1326
ssI73
(dp1601
I3
g1028
sI9
g1117
sI10
g1139
sI11
g1148
sI108
(dp1602
sI77
(dp1603
sI27
g1308
sI28
g1327
ssI74
(dp1604
I64
g1578
sI3
g1029
sI38
g1459
sI7
g1080
sI8
g1097
sI108
(dp1605
sI12
g1166
sI26
g1292
sI27
g1309
sI28
g1328
ssI75
(dp1606
I0
g988
sI5
g1052
sI6
g1069
sI76
(dp1607
sI15
g1193
sI21
g1260
sI25
g1285
sI38
g1466
sI60
g1543
sI29
g1345
sI30
g1355
ssI76
(dp1608
I0
g987
sI5
g1053
sI6
g1070
sI75
g1607
sI15
g1194
sI21
g1261
sI25
g1286
sI27
g1310
sI29
g1344
sI30
g1356
ssI77
(dp1609
I33
g1404
sI36
g1438
sI70
g1592
sI72
g1598
sI73
g1603
sI11
g1152
sI83
(dp1610
sI85
(dp1611
ssI78
(dp1612
I65
g1582
sI38
g1465
sI12
g1164
sI80
(dp1613
sI60
g1544
sI61
g1559
sI63
g1574
ssI79
(dp1614
I32
g1387
sI64
g1579
sI35
g1428
sI0
g991
sI33
g1405
sI8
g1098
sI111
(dp1615
sI60
g1542
ssI80
(dp1616
I0
g992
sI32
g1388
sI35
g1429
sI33
g1406
sI8
g1099
sI9
g1124
sI78
g1613
sI111
(dp1617
sI110
(dp1618
sI27
g1311
sI63
g1575
ssI81
(dp1619
I0
g993
sI5
g1057
sI6
g1075
sI39
g1478
sI15
g1195
sI16
g1209
sI82
(dp1620
sI26
g1296
sI61
g1560
sI30
g1357
sI31
g1368
ssI82
(dp1621
I0
g994
sI5
g1058
sI6
g1071
sI39
g1479
sI16
g1210
sI81
g1620
sI21
g1262
sI26
g1297
sI28
g1331
sI31
g1365
ssI83
(dp1622
I38
g1464
sI70
g1593
sI39
g1480
sI77
g1610
sI19
g1239
sI85
(dp1623
sI60
g1546
ssI84
(dp1624
I32
g1391
sI37
g1450
sI70
g1594
sI39
g1469
sI72
g1600
sI9
g1126
sI20
g1252
sI85
(dp1625
sI27
g1312
sI60
g1547
ssI85
(dp1626
I32
g1392
sI33
g1407
sI4
g1045
sI37
g1451
sI72
g1599
sI11
g1154
sI77
g1611
sI83
g1623
sI20
g1253
sI84
g1625
sI28
g1333
ssI86
(dp1627
I32
g1393
sI36
g1441
sI103
(dp1628
sI104
(dp1629
sI106
(dp1630
sI93
(dp1631
sI31
g1374
sI29
g1347
sI95
(dp1632
ssI87
(dp1633
I97
(dp1634
sI2
g1020
sI101
(dp1635
sI103
(dp1636
sI104
(dp1637
sI105
(dp1638
sI106
(dp1639
sI107
(dp1640
sI98
(dp1641
sI112
(dp1642
sI16
g1215
sI113
(dp1643
sI114
(dp1644
sI115
(dp1645
sI20
g1250
sI31
g1375
sI94
(dp1646
sI95
(dp1647
ssI88
(dp1648
I0
g996
sI8
g1100
sI34
g1421
sI33
g1408
sI7
g1087
ssI89
(dp1649
I0
g995
sI33
g1409
sI35
g1432
sI7
g1088
sI8
g1101
sI96
(dp1650
sI107
(dp1651
sI114
(dp1652
sI105
(dp1653
sI94
(dp1654
ssI90
(dp1655
I103
(dp1656
sI104
(dp1657
sI114
(dp1658
sI59
g1534
sI94
(dp1659
sI95
(dp1660
ssI91
(dp1661
I33
g1410
sI2
g1021
sI103
(dp1662
sI104
(dp1663
sI98
(dp1664
sI112
(dp1665
sI18
g1234
sI30
g1360
ssI92
(dp1666
I0
g999
sI37
g1455
sI38
g1467
sI7
g1089
sI8
g1102
sI105
(dp1667
sI107
(dp1668
sI112
(dp1669
sI114
(dp1670
sI115
(dp1671
ssI93
(dp1672
I112
(dp1673
sI113
(dp1674
sI98
(dp1675
sI86
g1631
ssI94
(dp1676
I98
(dp1677
sI107
(dp1678
sI12
g1167
sI112
(dp1679
sI113
(dp1680
sI114
(dp1681
sI115
(dp1682
sI87
g1646
sI89
g1654
sI90
g1659
sI61
g1563
ssI95
(dp1683
I0
g998
sI59
g1536
sI101
(dp1684
sI8
g1103
sI15
g1196
sI86
g1632
sI87
g1647
sI90
g1660
sI27
g1313
ssI96
(dp1685
I98
(dp1686
sI36
g1435
sI5
g1059
sI39
g1470
sI8
g1104
sI9
g1116
sI10
g1135
sI113
(dp1687
sI89
g1650
sI27
g1314
ssI97
(dp1688
I98
(dp1689
sI36
g1436
sI37
g1443
sI39
g1474
sI8
g1105
sI10
g1136
sI12
g1158
sI113
(dp1690
sI87
g1634
sI27
g1315
sI61
g1555
ssI98
(dp1691
I96
g1686
sI97
g1689
sI27
g1316
sI8
g1106
sI10
g1137
sI12
g1159
sI112
(dp1692
sI113
(dp1693
sI87
g1641
sI91
g1664
sI93
g1675
sI94
g1677
ssI99
(dp1694
I66
g1584
sI67
g1587
sI4
g1044
sI39
g1477
sI15
g1197
sI20
g1247
sI62
g1566
sI100
(dp1695
sI28
g1332
sI61
g1553
sI30
g1358
ssI100
(dp1696
I66
g1585
sI99
g1695
sI4
g1035
sI37
g1445
sI39
g1473
sI15
g1198
sI20
g1255
sI62
g1567
sI59
g1535
sI30
g1353
ssI101
(dp1697
I59
g1537
sI4
g1036
sI102
(dp1698
sI8
g1107
sI95
g1684
sI11
g1145
sI15
g1199
sI87
g1635
sI27
g1317
sI61
g1558
sI31
g1366
ssI102
(dp1699
I33
g1411
sI59
g1531
sI4
g1047
sI101
g1698
sI8
g1108
sI11
g1156
sI15
g1200
sI27
g1318
sI61
g1554
sI31
g1367
ssI103
(dp1700
I33
g1412
sI91
g1662
sI39
g1476
sI104
(dp1701
sI11
g1149
sI86
g1628
sI87
g1636
sI90
g1656
sI59
g1532
sI61
g1557
ssI104
(dp1702
I33
g1413
sI91
g1663
sI4
g1043
sI103
g1701
sI86
g1629
sI87
g1637
sI90
g1657
sI59
g1533
sI61
g1556
sI31
g1369
ssI105
(dp1703
I32
g1381
sI2
g1016
sI3
g1032
sI92
g1667
sI107
(dp1704
sI115
(dp1705
sI87
g1638
sI89
g1653
sI60
g1548
ssI106
(dp1706
I32
g1390
sI115
(dp1707
sI7
g1086
sI9
g1118
sI107
(dp1708
sI14
g1173
sI15
g1201
sI19
g1238
sI86
g1630
sI87
g1639
sI60
g1549
ssI107
(dp1709
I7
g1082
sI9
g1119
sI106
g1708
sI14
g1174
sI15
g1202
sI114
(dp1710
sI115
(dp1711
sI105
g1704
sI87
g1640
sI89
g1651
sI92
g1668
sI94
g1678
ssI108
(dp1712
I32
g1384
sI3
g1030
sI8
g1109
sI9
g1125
sI74
g1605
sI12
g1162
sI109
(dp1713
sI73
g1602
sI28
g1329
sI62
g1569
ssI109
(dp1714
I32
g1389
sI3
g1031
sI8
g1110
sI9
g1123
sI10
g1141
sI12
g1165
sI108
g1713
sI27
g1319
sI28
g1330
sI62
g1570
ssI110
(dp1715
I0
g990
sI33
g1414
sI35
g1427
sI8
g1111
sI111
(dp1716
sI15
g1203
sI80
g1618
sI18
g1228
sI27
g1320
sI61
g1561
ssI111
(dp1717
I0
g1000
sI65
g1581
sI35
g1433
sI9
g1128
sI110
g1716
sI15
g1204
sI80
g1617
sI18
g1226
sI79
g1615
sI61
g1562
ssI112
(dp1718
I98
g1692
sI27
g1321
sI39
g1475
sI8
g1112
sI113
(dp1719
sI87
g1642
sI91
g1665
sI92
g1669
sI93
g1673
sI94
g1679
ssI113
(dp1720
I96
g1687
sI97
g1690
sI98
g1693
sI37
g1449
sI39
g1482
sI8
g1113
sI112
g1719
sI87
g1643
sI93
g1674
sI94
g1680
ssI114
(dp1721
I7
g1083
sI60
g1545
sI107
g1710
sI15
g1205
sI115
(dp1722
sI87
g1644
sI89
g1652
sI90
g1658
sI92
g1670
sI94
g1681
ssI115
(dp1723
I32
g1378
sI107
g1711
sI7
g1079
sI60
g1541
sI106
g1707
sI87
g1645
sI114
g1722
sI105
g1705
sI92
g1671
sI94
g1682
sssg857
(dp1724
sg859
g127
sg860
g980
sbag2
(g3
g4
NtRp1725
(dp1726
g7
(dp1727
I0
(dp1728
sI1
(dp1729
sI2
(dp1730
sI3
(dp1731
sI4
(dp1732
sI5
(dp1733
sI6
(dp1734
sI7
(dp1735
sI8
(dp1736
sI9
(dp1737
sI10
(dp1738
sI11
(dp1739
sI12
(dp1740
sI13
(dp1741
sI14
(dp1742
sI15
(dp1743
sI16
(dp1744
sI17
(dp1745
sI18
(dp1746
sI19
(dp1747
sI20
(dp1748
sI21
(dp1749
sI22
(dp1750
sI23
(dp1751
sI24
(dp1752
sI25
(dp1753
sI26
(dp1754
sI27
(dp1755
sI28
(dp1756
sI29
(dp1757
sI30
(dp1758
sI31
(dp1759
sI32
(dp1760
sI33
(dp1761
sI34
(dp1762
sI35
(dp1763
sI36
(dp1764
sI37
(dp1765
sI38
(dp1766
sI39
(dp1767
sI40
(dp1768
sI41
(dp1769
sI42
(dp1770
sI43
(dp1771
sI44
(dp1772
sI45
(dp1773
sI46
(dp1774
sI47
(dp1775
sI48
(dp1776
sI49
(dp1777
sI50
(dp1778
sI51
(dp1779
sI52
(dp1780
sI53
(dp1781
sI54
(dp1782
sI55
(dp1783
sI56
(dp1784
sI57
(dp1785
sI58
(dp1786
sI59
(dp1787
sI60
(dp1788
sI61
(dp1789
sI62
(dp1790
sI63
(dp1791
sI64
(dp1792
sI65
(dp1793
sI66
(dp1794
sI67
(dp1795
sI68
(dp1796
sI69
(dp1797
sI70
(dp1798
sI71
(dp1799
sI72
(dp1800
sI73
(dp1801
sI74
(dp1802
sI75
(dp1803
sI76
(dp1804
sI77
(dp1805
sI78
(dp1806
sI79
(dp1807
sI80
(dp1808
sI81
(dp1809
sI82
(dp1810
sI83
(dp1811
sI84
(dp1812
sI85
(dp1813
sI86
(dp1814
sI87
(dp1815
sI88
(dp1816
sI89
(dp1817
sI90
(dp1818
sI91
(dp1819
sI92
(dp1820
sI93
(dp1821
sI94
(dp1822
sI95
(dp1823
sI96
(dp1824
sI97
(dp1825
sI98
(dp1826
sI99
(dp1827
sI100
(dp1828
sI101
(dp1829
sI102
(dp1830
sI103
(dp1831
sI104
(dp1832
sI105
(dp1833
sI106
(dp1834
sI107
(dp1835
sI108
(dp1836
sI109
(dp1837
sI110
(dp1838
sI111
(dp1839
sI112
(dp1840
sI113
(dp1841
sI114
(dp1842
sI115
(dp1843
sI116
(dp1844
ssg126
g127
sg128
g127
sg129
(dp1845
I0
(dp1846
I1
(dp1847
sI2
(dp1848
sI3
(dp1849
sI4
(dp1850
sI5
(dp1851
sI79
(dp1852
ssI1
(dp1853
I0
g1847
sI3
(dp1854
sI4
(dp1855
sI5
(dp1856
sI52
(dp1857
sI53
(dp1858
sI54
(dp1859
sI87
(dp1860
sI88
(dp1861
sI89
(dp1862
sI90
(dp1863
sI91
(dp1864
sI28
(dp1865
ssI2
(dp1866
I0
g1848
sI32
(dp1867
sI3
(dp1868
sI4
(dp1869
sI5
(dp1870
sI102
(dp1871
sI72
(dp1872
sI104
(dp1873
sI52
(dp1874
sI86
(dp1875
sI28
(dp1876
sI93
(dp1877
sI94
(dp1878
ssI3
(dp1879
I0
g1849
sI1
g1854
sI2
g1868
sI67
(dp1880
sI4
(dp1881
sI5
(dp1882
sI65
(dp1883
sI72
(dp1884
sI66
(dp1885
sI78
(dp1886
sI77
(dp1887
sI51
(dp1888
sI52
(dp1889
sI23
(dp1890
sI68
(dp1891
sI59
(dp1892
sI63
(dp1893
ssI4
(dp1894
I0
g1850
sI1
g1855
sI2
g1869
sI3
g1881
sI28
(dp1895
sI40
(dp1896
sI55
(dp1897
sI56
(dp1898
sI57
(dp1899
sI60
(dp1900
sI61
(dp1901
sI70
(dp1902
sI72
(dp1903
sI75
(dp1904
sI76
(dp1905
sI83
(dp1906
sI84
(dp1907
sI85
(dp1908
sI89
(dp1909
sI97
(dp1910
sI106
(dp1911
sI109
(dp1912
ssI5
(dp1913
I0
g1851
sI1
g1856
sI2
g1870
sI3
g1882
sI101
(dp1914
sI103
(dp1915
sI105
(dp1916
sI79
(dp1917
sI80
(dp1918
sI81
(dp1919
sI50
(dp1920
sI89
(dp1921
sI91
(dp1922
sI28
(dp1923
ssI6
(dp1924
I64
(dp1925
sI68
(dp1926
sI69
(dp1927
sI7
(dp1928
sI8
(dp1929
sI9
(dp1930
sI74
(dp1931
sI108
(dp1932
sI77
(dp1933
sI78
(dp1934
sI109
(dp1935
sI72
(dp1936
sI50
(dp1937
sI105
(dp1938
sI110
(dp1939
sI73
(dp1940
sI58
(dp1941
sI111
(dp1942
sI62
(dp1943
ssI7
(dp1944
I68
(dp1945
sI69
(dp1946
sI6
g1928
sI103
(dp1947
sI10
(dp1948
sI45
(dp1949
sI78
(dp1950
sI77
(dp1951
sI49
(dp1952
sI86
(dp1953
sI74
(dp1954
ssI8
(dp1955
I80
(dp1956
sI67
(dp1957
sI6
g1929
sI70
(dp1958
sI103
(dp1959
sI75
(dp1960
sI76
(dp1961
sI45
(dp1962
sI77
(dp1963
sI48
(dp1964
sI81
(dp1965
ssI9
(dp1966
I6
g1930
sI14
(dp1967
sI52
(dp1968
sI54
(dp1969
sI59
(dp1970
sI63
(dp1971
sI65
(dp1972
sI66
(dp1973
sI67
(dp1974
sI69
(dp1975
sI88
(dp1976
sI90
(dp1977
sI91
(dp1978
sI93
(dp1979
sI94
(dp1980
sI95
(dp1981
sI96
(dp1982
sI102
(dp1983
sI112
(dp1984
sI113
(dp1985
sI115
(dp1986
sI116
(dp1987
ssI10
(dp1988
I100
(dp1989
sI102
(dp1990
sI7
g1948
sI107
(dp1991
sI12
(dp1992
sI110
(dp1993
sI86
(dp1994
sI23
(dp1995
ssI11
(dp1996
I67
(dp1997
sI113
(dp1998
sI71
(dp1999
sI72
(dp2000
sI73
(dp2001
sI87
(dp2002
sI12
(dp2003
sI13
(dp2004
sI88
(dp2005
sI83
(dp2006
sI55
(dp2007
sI56
(dp2008
sI57
(dp2009
sI90
(dp2010
sI60
(dp2011
sI61
(dp2012
ssI12
(dp2013
I68
(dp2014
sI69
(dp2015
sI39
(dp2016
sI10
g1992
sI11
g2003
sI13
(dp2017
sI110
(dp2018
sI77
(dp2019
sI111
(dp2020
sI79
(dp2021
sI106
(dp2022
ssI13
(dp2023
I102
(dp2024
sI108
(dp2025
sI42
(dp2026
sI11
g2004
sI12
g2017
sI109
(dp2027
sI114
(dp2028
sI115
(dp2029
sI116
(dp2030
sI88
(dp2031
sI93
(dp2032
sI95
(dp2033
ssI14
(dp2034
I80
(dp2035
sI101
(dp2036
sI9
g1967
sI46
(dp2037
sI15
(dp2038
sI16
(dp2039
sI81
(dp2040
sI50
(dp2041
ssI15
(dp2042
I100
(dp2043
sI98
(dp2044
sI36
(dp2045
sI116
(dp2046
sI103
(dp2047
sI104
(dp2048
sI41
(dp2049
sI14
g2038
sI17
(dp2050
sI115
(dp2051
sI20
(dp2052
sI21
(dp2053
sI89
(dp2054
sI90
(dp2055
ssI16
(dp2056
I80
(dp2057
sI102
(dp2058
sI72
(dp2059
sI73
(dp2060
sI14
g2039
sI48
(dp2061
sI104
(dp2062
sI114
(dp2063
sI105
(dp2064
sI92
(dp2065
sI30
(dp2066
ssI17
(dp2067
I41
(dp2068
sI15
g2050
sI18
(dp2069
sI19
(dp2070
sI20
(dp2071
sI21
(dp2072
sI92
(dp2073
ssI18
(dp2074
I36
(dp2075
sI17
g2069
sI19
(dp2076
sI20
(dp2077
sI21
(dp2078
sI90
(dp2079
sI91
(dp2080
ssI19
(dp2081
I96
(dp2082
sI97
(dp2083
sI113
(dp2084
sI41
(dp2085
sI82
(dp2086
sI112
(dp2087
sI17
g2070
sI18
g2076
sI20
(dp2088
sI53
(dp2089
sI54
(dp2090
sI87
(dp2091
sI88
(dp2092
sI89
(dp2093
sI90
(dp2094
sI91
(dp2095
sI93
(dp2096
ssI20
(dp2097
I66
(dp2098
sI36
(dp2099
sI70
(dp2100
sI81
(dp2101
sI103
(dp2102
sI73
(dp2103
sI75
(dp2104
sI76
(dp2105
sI82
(dp2106
sI78
(dp2107
sI15
g2052
sI80
(dp2108
sI17
g2071
sI18
g2077
sI19
g2088
sI105
(dp2109
sI87
(dp2110
sI104
(dp2111
sI79
(dp2112
ssI21
(dp2113
I64
(dp2114
sI97
(dp2115
sI99
(dp2116
sI36
(dp2117
sI101
(dp2118
sI77
(dp2119
sI15
g2053
sI112
(dp2120
sI17
g2072
sI18
g2078
sI58
(dp2121
sI62
(dp2122
sI31
(dp2123
ssI22
(dp2124
I83
(dp2125
sI67
(dp2126
sI68
(dp2127
sI69
(dp2128
sI103
(dp2129
sI105
(dp2130
sI108
(dp2131
sI79
(dp2132
sI49
(dp2133
sI50
(dp2134
sI51
(dp2135
sI53
(dp2136
sI89
(dp2137
sI23
(dp2138
sI24
(dp2139
sI88
(dp2140
ssI23
(dp2141
I3
g1890
sI102
(dp2142
sI10
g1995
sI43
(dp2143
sI108
(dp2144
sI110
(dp2145
sI111
(dp2146
sI112
(dp2147
sI114
(dp2148
sI107
(dp2149
sI22
g2138
sI87
(dp2150
sI89
(dp2151
sI92
(dp2152
sI42
(dp2153
ssI24
(dp2154
I22
g2139
sI29
(dp2155
sI39
(dp2156
sI55
(dp2157
sI56
(dp2158
sI57
(dp2159
sI60
(dp2160
sI61
(dp2161
sI66
(dp2162
sI67
(dp2163
sI68
(dp2164
sI72
(dp2165
sI74
(dp2166
sI82
(dp2167
sI86
(dp2168
sI103
(dp2169
sI104
(dp2170
sI105
(dp2171
sI106
(dp2172
sI110
(dp2173
sI111
(dp2174
sI112
(dp2175
sI113
(dp2176
ssI25
(dp2177
I97
(dp2178
sI26
(dp2179
sI106
(dp2180
sI93
(dp2181
ssI26
(dp2182
I96
(dp2183
sI97
(dp2184
sI104
(dp2185
sI43
(dp2186
sI46
(dp2187
sI51
(dp2188
sI52
(dp2189
sI53
(dp2190
sI55
(dp2191
sI25
g2179
sI27
(dp2192
sI92
(dp2193
sI93
(dp2194
sI94
(dp2195
sI95
(dp2196
ssI27
(dp2197
I96
(dp2198
sI40
(dp2199
sI107
(dp2200
sI26
g2192
sI93
(dp2201
sI95
(dp2202
ssI28
(dp2203
I1
g1865
sI2
g1876
sI4
g1895
sI5
g1923
sI106
(dp2204
sI107
(dp2205
sI108
(dp2206
sI109
(dp2207
sI110
(dp2208
sI114
(dp2209
sI115
(dp2210
sI116
(dp2211
sI101
(dp2212
ssI29
(dp2213
I32
(dp2214
sI33
(dp2215
sI97
(dp2216
sI104
(dp2217
sI105
(dp2218
sI43
(dp2219
sI50
(dp2220
sI52
(dp2221
sI53
(dp2222
sI54
(dp2223
sI24
g2155
sI30
(dp2224
sI31
(dp2225
ssI30
(dp2226
I101
(dp2227
sI102
(dp2228
sI107
(dp2229
sI109
(dp2230
sI93
(dp2231
sI16
g2066
sI115
(dp2232
sI116
(dp2233
sI89
(dp2234
sI90
(dp2235
sI91
(dp2236
sI92
(dp2237
sI29
g2224
ssI31
(dp2238
I32
(dp2239
sI34
(dp2240
sI104
(dp2241
sI73
(dp2242
sI74
(dp2243
sI78
(dp2244
sI21
g2123
sI105
(dp2245
sI56
(dp2246
sI29
g2225
ssI32
(dp2247
I33
(dp2248
sI2
g1867
sI99
(dp2249
sI73
(dp2250
sI42
(dp2251
sI34
(dp2252
sI78
(dp2253
sI29
g2214
sI31
g2239
ssI33
(dp2254
I32
g2248
sI34
(dp2255
sI35
(dp2256
sI100
(dp2257
sI109
(dp2258
sI110
(dp2259
sI49
(dp2260
sI114
(dp2261
sI115
(dp2262
sI55
(dp2263
sI57
(dp2264
sI29
g2215
ssI34
(dp2265
I32
g2252
sI33
g2255
sI113
(dp2266
sI43
(dp2267
sI45
(dp2268
sI79
(dp2269
sI112
(dp2270
sI81
(dp2271
sI56
(dp2272
sI60
(dp2273
sI31
g2240
ssI35
(dp2274
I33
g2256
sI98
(dp2275
sI99
(dp2276
sI38
(dp2277
sI70
(dp2278
sI80
(dp2279
sI107
(dp2280
sI109
(dp2281
sI46
(dp2282
sI79
(dp2283
sI48
(dp2284
sI81
(dp2285
sI57
(dp2286
sI111
(dp2287
sI92
(dp2288
sI93
(dp2289
sI94
(dp2290
sI95
(dp2291
ssI36
(dp2292
I70
(dp2293
sI104
(dp2294
sI105
(dp2295
sI42
(dp2296
sI18
g2075
sI15
g2045
sI50
(dp2297
sI51
(dp2298
sI20
g2099
sI21
g2117
sI54
(dp2299
sI61
(dp2300
sI53
(dp2301
ssI37
(dp2302
I97
(dp2303
sI101
(dp2304
sI38
(dp2305
sI41
(dp2306
sI107
(dp2307
sI109
(dp2308
sI112
(dp2309
sI113
(dp2310
sI114
(dp2311
sI115
(dp2312
sI95
(dp2313
ssI38
(dp2314
I98
(dp2315
sI35
g2277
sI68
(dp2316
sI37
g2305
sI107
(dp2317
sI110
(dp2318
sI111
(dp2319
sI83
(dp2320
sI85
(dp2321
sI60
(dp2322
ssI39
(dp2323
I101
(dp2324
sI102
(dp2325
sI12
g2016
sI110
(dp2326
sI24
g2156
sI90
(dp2327
sI91
(dp2328
ssI40
(dp2329
I4
g1896
sI70
(dp2330
sI72
(dp2331
sI79
(dp2332
sI51
(dp2333
sI27
g2199
ssI41
(dp2334
I37
g2306
sI15
g2049
sI17
g2068
sI19
g2085
sI52
(dp2335
sI53
(dp2336
sI54
(dp2337
sI87
(dp2338
sI91
(dp2339
sI86
(dp2340
ssI42
(dp2341
I32
g2251
sI36
g2296
sI75
(dp2342
sI13
g2026
sI46
(dp2343
sI23
g2153
sI61
(dp2344
ssI43
(dp2345
I34
g2267
sI73
(dp2346
sI74
(dp2347
sI75
(dp2348
sI76
(dp2349
sI81
(dp2350
sI51
(dp2351
sI52
(dp2352
sI53
(dp2353
sI54
(dp2354
sI23
g2143
sI26
g2186
sI29
g2219
ssI44
(dp2355
I74
(dp2356
sI51
(dp2357
sI52
(dp2358
sI78
(dp2359
sI54
(dp2360
ssI45
(dp2361
I80
(dp2362
sI34
g2268
sI7
g1949
sI8
g1962
sI48
(dp2363
sI49
(dp2364
ssI46
(dp2365
I35
g2282
sI71
(dp2366
sI42
g2343
sI76
(dp2367
sI14
g2037
sI82
(dp2368
sI84
(dp2369
sI85
(dp2370
sI55
(dp2371
sI26
g2187
sI74
(dp2372
ssI47
(dp2373
I80
(dp2374
sI49
(dp2375
sI74
(dp2376
sI81
(dp2377
ssI48
(dp2378
I35
g2284
sI8
g1964
sI75
(dp2379
sI45
g2363
sI16
g2061
sI49
(dp2380
sI56
(dp2381
ssI49
(dp2382
I33
g2260
sI7
g1952
sI80
(dp2383
sI45
g2364
sI47
g2375
sI48
g2380
sI81
(dp2384
sI22
g2133
sI79
(dp2385
ssI50
(dp2386
I36
g2297
sI5
g1920
sI6
g1937
sI14
g2041
sI51
(dp2387
sI22
g2134
sI29
g2220
ssI51
(dp2388
I3
g1888
sI36
g2298
sI40
g2333
sI43
g2351
sI44
g2357
sI50
g2387
sI52
(dp2389
sI53
(dp2390
sI22
g2135
sI26
g2188
ssI52
(dp2391
I1
g1857
sI2
g1874
sI3
g1889
sI9
g1968
sI43
g2352
sI44
g2358
sI51
g2389
sI54
(dp2392
sI41
g2335
sI26
g2189
sI29
g2221
ssI53
(dp2393
I51
g2390
sI36
g2301
sI54
(dp2394
sI1
g1858
sI41
g2336
sI43
g2353
sI19
g2089
sI22
g2136
sI26
g2190
sI29
g2222
ssI54
(dp2395
I1
g1859
sI36
g2299
sI41
g2337
sI43
g2354
sI44
g2360
sI19
g2090
sI52
g2392
sI53
g2394
sI9
g1969
sI29
g2223
ssI55
(dp2396
I33
g2263
sI66
(dp2397
sI4
g1897
sI11
g2007
sI46
g2371
sI24
g2157
sI57
(dp2398
sI26
g2191
ssI56
(dp2399
I34
g2272
sI4
g1898
sI11
g2008
sI76
(dp2400
sI48
g2381
sI24
g2158
sI31
g2246
ssI57
(dp2401
I33
g2264
sI35
g2286
sI4
g1899
sI71
(dp2402
sI11
g2009
sI55
g2398
sI24
g2159
ssI58
(dp2403
I84
(dp2404
sI70
(dp2405
sI60
(dp2406
sI21
g2121
sI6
g1941
ssI59
(dp2407
I3
g1892
sI68
(dp2408
sI69
(dp2409
sI70
(dp2410
sI9
g1970
sI77
(dp2411
sI82
(dp2412
sI83
(dp2413
sI84
(dp2414
sI61
(dp2415
ssI60
(dp2416
I34
g2273
sI4
g1900
sI38
g2322
sI11
g2011
sI82
(dp2417
sI83
(dp2418
sI84
(dp2419
sI85
(dp2420
sI24
g2160
sI58
g2406
ssI61
(dp2421
I36
g2300
sI42
g2344
sI11
g2012
sI84
(dp2422
sI85
(dp2423
sI24
g2161
sI4
g1901
sI59
g2415
ssI62
(dp2424
I75
(dp2425
sI21
g2122
sI6
g1943
sI69
(dp2426
ssI63
(dp2427
I9
g1971
sI75
(dp2428
sI3
g1893
sI69
(dp2429
ssI64
(dp2430
I6
g1925
sI71
(dp2431
sI76
(dp2432
sI83
(dp2433
sI84
(dp2434
sI21
g2114
sI85
(dp2435
ssI65
(dp2436
I9
g1972
sI66
(dp2437
sI3
g1883
sI76
(dp2438
ssI66
(dp2439
I65
g2437
sI3
g1885
sI71
(dp2440
sI9
g1973
sI83
(dp2441
sI20
g2098
sI85
(dp2442
sI55
g2397
sI24
g2162
sI84
(dp2443
ssI67
(dp2444
I3
g1880
sI69
(dp2445
sI71
(dp2446
sI8
g1957
sI9
g1974
sI11
g1997
sI22
g2126
sI24
g2163
ssI68
(dp2447
I3
g1891
sI6
g1926
sI38
g2316
sI7
g1945
sI12
g2014
sI77
(dp2448
sI22
g2127
sI24
g2164
sI59
g2408
ssI69
(dp2449
I67
g2445
sI6
g1927
sI7
g1946
sI9
g1975
sI12
g2015
sI77
(dp2450
sI22
g2128
sI59
g2409
sI62
g2426
sI63
g2429
ssI70
(dp2451
I35
g2278
sI36
g2293
sI8
g1958
sI40
g2330
sI20
g2100
sI4
g1902
sI58
g2405
sI59
g2410
ssI71
(dp2452
I64
g2431
sI66
g2440
sI67
g2446
sI11
g1999
sI46
g2366
sI83
(dp2453
sI85
(dp2454
sI57
g2402
ssI72
(dp2455
I2
g1872
sI3
g1884
sI4
g1903
sI6
g1936
sI40
g2331
sI74
(dp2456
sI11
g2000
sI16
g2059
sI24
g2165
ssI73
(dp2457
I32
g2250
sI43
g2346
sI6
g1940
sI11
g2001
sI78
(dp2458
sI16
g2060
sI20
g2103
sI31
g2242
ssI74
(dp2459
I6
g1931
sI7
g1954
sI72
g2456
sI43
g2347
sI44
g2356
sI46
g2372
sI47
g2376
sI78
(dp2460
sI24
g2166
sI31
g2243
ssI75
(dp2461
I4
g1904
sI8
g1960
sI42
g2342
sI43
g2348
sI48
g2379
sI20
g2104
sI62
g2425
sI63
g2428
ssI76
(dp2462
I64
g2432
sI65
g2438
sI4
g1905
sI8
g1961
sI43
g2349
sI46
g2367
sI20
g2105
sI56
g2400
ssI77
(dp2463
I3
g1887
sI68
g2448
sI69
g2450
sI6
g1933
sI7
g1951
sI8
g1963
sI12
g2019
sI21
g2119
sI59
g2411
ssI78
(dp2464
I32
g2253
sI3
g1886
sI6
g1934
sI7
g1950
sI73
g2458
sI74
g2460
sI44
g2359
sI20
g2107
sI31
g2244
ssI79
(dp2465
I0
g1852
sI34
g2269
sI35
g2283
sI5
g1917
sI40
g2332
sI12
g2021
sI80
(dp2466
sI49
g2385
sI20
g2112
sI22
g2132
ssI80
(dp2467
I35
g2279
sI5
g1918
sI81
(dp2468
sI8
g1956
sI45
g2362
sI14
g2035
sI47
g2374
sI16
g2057
sI49
g2383
sI20
g2108
sI79
g2466
ssI81
(dp2469
I34
g2271
sI35
g2285
sI5
g1919
sI8
g1965
sI43
g2350
sI14
g2040
sI47
g2377
sI80
g2468
sI49
g2384
sI20
g2101
ssI82
(dp2470
I83
(dp2471
sI46
g2368
sI19
g2086
sI20
g2106
sI24
g2167
sI84
(dp2472
sI59
g2412
sI60
g2417
ssI83
(dp2473
I64
g2433
sI66
g2441
sI4
g1906
sI38
g2320
sI71
g2453
sI11
g2006
sI82
g2471
sI85
(dp2474
sI22
g2125
sI59
g2413
sI60
g2418
ssI84
(dp2475
I64
g2434
sI66
g2443
sI4
g1907
sI46
g2369
sI82
g2472
sI85
(dp2476
sI58
g2404
sI59
g2414
sI60
g2419
sI61
g2422
ssI85
(dp2477
I64
g2435
sI66
g2442
sI4
g1908
sI38
g2321
sI71
g2454
sI46
g2370
sI83
g2474
sI84
g2476
sI60
g2420
sI61
g2423
ssI86
(dp2478
I96
(dp2479
sI2
g1875
sI7
g1953
sI41
g2340
sI10
g1994
sI24
g2168
sI94
(dp2480
sI95
(dp2481
ssI87
(dp2482
I96
(dp2483
sI1
g1860
sI41
g2338
sI11
g2002
sI19
g2091
sI20
g2110
sI23
g2150
sI94
(dp2484
sI95
(dp2485
ssI88
(dp2486
I96
(dp2487
sI1
g1861
sI9
g1976
sI11
g2005
sI13
g2031
sI19
g2092
sI22
g2140
sI90
(dp2488
ssI89
(dp2489
I1
g1862
sI4
g1909
sI5
g1921
sI15
g2054
sI19
g2093
sI22
g2137
sI23
g2151
sI91
(dp2490
sI30
g2234
ssI90
(dp2491
I1
g1863
sI39
g2327
sI9
g1977
sI11
g2010
sI15
g2055
sI18
g2079
sI19
g2094
sI88
g2488
sI91
(dp2492
sI30
g2235
ssI91
(dp2493
I1
g1864
sI5
g1922
sI39
g2328
sI9
g1978
sI18
g2080
sI19
g2095
sI41
g2339
sI89
g2490
sI90
g2492
sI30
g2236
ssI92
(dp2494
I96
(dp2495
sI35
g2288
sI16
g2065
sI17
g2073
sI23
g2152
sI26
g2193
sI30
g2237
ssI93
(dp2496
I2
g1877
sI35
g2289
sI9
g1979
sI13
g2032
sI19
g2096
sI94
(dp2497
sI25
g2181
sI26
g2194
sI27
g2201
sI30
g2231
ssI94
(dp2498
I96
(dp2499
sI2
g1878
sI35
g2290
sI9
g1980
sI86
g2480
sI87
g2484
sI26
g2195
sI93
g2497
sI95
(dp2500
ssI95
(dp2501
I96
(dp2502
sI35
g2291
sI37
g2313
sI9
g1981
sI13
g2033
sI86
g2481
sI87
g2485
sI26
g2196
sI27
g2202
sI94
g2500
ssI96
(dp2503
I9
g1982
sI19
g2082
sI86
g2479
sI87
g2483
sI88
g2487
sI26
g2183
sI27
g2198
sI92
g2495
sI94
g2499
sI95
g2502
ssI97
(dp2504
I100
(dp2505
sI4
g1910
sI37
g2303
sI114
(dp2506
sI19
g2083
sI116
(dp2507
sI21
g2115
sI25
g2178
sI26
g2184
sI29
g2216
sI101
(dp2508
ssI98
(dp2509
I35
g2275
sI38
g2315
sI106
(dp2510
sI15
g2044
sI112
(dp2511
sI113
(dp2512
ssI99
(dp2513
I32
g2249
sI35
g2276
sI101
(dp2514
sI115
(dp2515
sI116
(dp2516
sI21
g2116
ssI100
(dp2517
I33
g2257
sI97
g2505
sI10
g1989
sI108
(dp2518
sI15
g2043
sI113
(dp2519
sI115
(dp2520
ssI101
(dp2521
I97
g2508
sI99
g2514
sI37
g2304
sI39
g2324
sI14
g2036
sI116
(dp2522
sI21
g2118
sI28
g2212
sI30
g2227
sI5
g1914
ssI102
(dp2523
I2
g1871
sI39
g2325
sI9
g1983
sI10
g1990
sI13
g2024
sI16
g2058
sI116
(dp2524
sI23
g2142
sI30
g2228
ssI103
(dp2525
I5
g1915
sI7
g1947
sI8
g1959
sI15
g2047
sI104
(dp2526
sI20
g2102
sI22
g2129
sI24
g2169
ssI104
(dp2527
I2
g1873
sI36
g2294
sI103
g2526
sI105
(dp2528
sI15
g2048
sI16
g2062
sI20
g2111
sI24
g2170
sI26
g2185
sI29
g2217
sI31
g2241
ssI105
(dp2529
I36
g2295
sI5
g1916
sI6
g1938
sI104
g2528
sI16
g2064
sI20
g2109
sI22
g2130
sI24
g2171
sI29
g2218
sI31
g2245
ssI106
(dp2530
I98
g2510
sI4
g1911
sI12
g2022
sI111
(dp2531
sI112
(dp2532
sI24
g2172
sI25
g2180
sI28
g2204
ssI107
(dp2533
I35
g2280
sI37
g2307
sI38
g2317
sI10
g1991
sI108
(dp2534
sI113
(dp2535
sI23
g2149
sI27
g2200
sI28
g2205
sI30
g2229
ssI108
(dp2536
I100
g2518
sI6
g1932
sI107
g2534
sI13
g2025
sI109
(dp2537
sI22
g2131
sI23
g2144
sI111
(dp2538
sI28
g2206
ssI109
(dp2539
I33
g2258
sI35
g2281
sI4
g1912
sI37
g2308
sI6
g1935
sI108
g2537
sI13
g2027
sI111
(dp2540
sI28
g2207
sI30
g2230
ssI110
(dp2541
I33
g2259
sI6
g1939
sI38
g2318
sI39
g2326
sI10
g1993
sI12
g2018
sI111
(dp2542
sI23
g2145
sI24
g2173
sI28
g2208
ssI111
(dp2543
I35
g2287
sI6
g1942
sI38
g2319
sI108
g2538
sI106
g2531
sI12
g2020
sI109
g2540
sI110
g2542
sI23
g2146
sI24
g2174
ssI112
(dp2544
I34
g2270
sI37
g2309
sI9
g1984
sI106
g2532
sI98
g2511
sI113
(dp2545
sI19
g2087
sI21
g2120
sI23
g2147
sI24
g2175
ssI113
(dp2546
I34
g2266
sI107
g2535
sI100
g2519
sI37
g2310
sI9
g1985
sI11
g1998
sI98
g2512
sI112
g2545
sI19
g2084
sI24
g2176
ssI114
(dp2547
I33
g2261
sI37
g2311
sI97
g2506
sI13
g2028
sI16
g2063
sI116
(dp2548
sI23
g2148
sI28
g2209
ssI115
(dp2549
I33
g2262
sI99
g2515
sI100
g2520
sI37
g2312
sI9
g1986
sI13
g2029
sI15
g2051
sI116
(dp2550
sI28
g2210
sI30
g2232
ssI116
(dp2551
I97
g2507
sI99
g2516
sI101
g2522
sI102
g2524
sI9
g1987
sI13
g2030
sI15
g2046
sI114
g2548
sI115
g2550
sI28
g2211
sI30
g2233
sssg857
(dp2552
sg859
g127
sg860
g1845
sbag2
(g3
g4
NtRp2553
(dp2554
g7
(dp2555
I0
(dp2556
sI1
(dp2557
sI2
(dp2558
sI3
(dp2559
sI4
(dp2560
sI5
(dp2561
sI6
(dp2562
sI7
(dp2563
sI8
(dp2564
sI9
(dp2565
sI10
(dp2566
sI11
(dp2567
sI12
(dp2568
sI13
(dp2569
sI14
(dp2570
sI15
(dp2571
sI16
(dp2572
sI17
(dp2573
sI18
(dp2574
sI19
(dp2575
sI20
(dp2576
sI21
(dp2577
sI22
(dp2578
sI23
(dp2579
sI24
(dp2580
sI25
(dp2581
sI26
(dp2582
sI27
(dp2583
sI28
(dp2584
sI29
(dp2585
sI30
(dp2586
sI31
(dp2587
sI32
(dp2588
sI33
(dp2589
sI34
(dp2590
sI35
(dp2591
sI36
(dp2592
sI37
(dp2593
sI38
(dp2594
sI39
(dp2595
sI40
(dp2596
sI41
(dp2597
sI42
(dp2598
sI43
(dp2599
sI44
(dp2600
sI45
(dp2601
sI46
(dp2602
sI47
(dp2603
sI48
(dp2604
sI49
(dp2605
sI50
(dp2606
sI51
(dp2607
sI52
(dp2608
sI53
(dp2609
sI54
(dp2610
sI55
(dp2611
sI56
(dp2612
sI57
(dp2613
sI58
(dp2614
sI59
(dp2615
sI60
(dp2616
sI61
(dp2617
sI62
(dp2618
sI63
(dp2619
sI64
(dp2620
sI65
(dp2621
sI66
(dp2622
sI67
(dp2623
sI68
(dp2624
sI69
(dp2625
sI70
(dp2626
sI71
(dp2627
sI72
(dp2628
sI73
(dp2629
sI74
(dp2630
sI75
(dp2631
sI76
(dp2632
sI77
(dp2633
sI78
(dp2634
sI79
(dp2635
sI80
(dp2636
sI81
(dp2637
sI82
(dp2638
sI83
(dp2639
sI84
(dp2640
sI85
(dp2641
sI86
(dp2642
sI87
(dp2643
sI88
(dp2644
sI89
(dp2645
sI90
(dp2646
sI91
(dp2647
sI92
(dp2648
sI93
(dp2649
sI94
(dp2650
sI95
(dp2651
sI96
(dp2652
sI97
(dp2653
sI98
(dp2654
sI99
(dp2655
sI100
(dp2656
sI101
(dp2657
sI102
(dp2658
sI103
(dp2659
sI104
(dp2660
sI105
(dp2661
sI106
(dp2662
sI107
(dp2663
sI108
(dp2664
sI109
(dp2665
sI110
(dp2666
sI111
(dp2667
sI112
(dp2668
sI113
(dp2669
sI114
(dp2670
sI115
(dp2671
sI116
(dp2672
ssg126
g127
sg128
g127
sg129
(dp2673
I0
(dp2674
I107
(dp2675
sI1
(dp2676
sI2
(dp2677
sI3
(dp2678
sI4
(dp2679
sI5
(dp2680
sI112
(dp2681
sI74
(dp2682
sI75
(dp2683
sI111
(dp2684
sI48
(dp2685
sI51
(dp2686
sI88
(dp2687
sI106
(dp2688
ssI1
(dp2689
I0
g2676
sI64
(dp2690
sI3
(dp2691
sI4
(dp2692
sI5
(dp2693
sI83
(dp2694
sI84
(dp2695
sI86
(dp2696
sI87
(dp2697
sI28
(dp2698
sI63
(dp2699
ssI2
(dp2700
I0
g2677
sI32
(dp2701
sI98
(dp2702
sI3
(dp2703
sI4
(dp2704
sI5
(dp2705
sI97
(dp2706
sI105
(dp2707
sI103
(dp2708
sI101
(dp2709
sI113
(dp2710
sI114
(dp2711
sI99
(dp2712
sI84
(dp2713
sI88
(dp2714
sI89
(dp2715
sI90
(dp2716
sI91
(dp2717
sI28
(dp2718
sI62
(dp2719
sI69
(dp2720
ssI3
(dp2721
I0
g2678
sI1
g2691
sI2
g2703
sI67
(dp2722
sI4
(dp2723
sI5
(dp2724
sI70
(dp2725
sI64
(dp2726
sI108
(dp2727
sI66
(dp2728
sI78
(dp2729
sI109
(dp2730
sI50
(dp2731
sI110
(dp2732
sI23
(dp2733
sI68
(dp2734
sI69
(dp2735
sI63
(dp2736
ssI4
(dp2737
I0
g2679
sI1
g2692
sI2
g2704
sI3
g2723
sI97
(dp2738
sI71
(dp2739
sI40
(dp2740
sI96
(dp2741
sI28
(dp2742
sI95
(dp2743
ssI5
(dp2744
I0
g2680
sI1
g2693
sI2
g2705
sI3
g2724
sI102
(dp2745
sI65
(dp2746
sI72
(dp2747
sI73
(dp2748
sI106
(dp2749
sI107
(dp2750
sI112
(dp2751
sI93
(dp2752
sI92
(dp2753
sI99
(dp2754
sI111
(dp2755
sI28
(dp2756
sI61
(dp2757
sI94
(dp2758
ssI6
(dp2759
I7
(dp2760
sI8
(dp2761
sI9
(dp2762
sI57
(dp2763
sI58
(dp2764
sI60
(dp2765
sI62
(dp2766
sI63
(dp2767
sI64
(dp2768
sI66
(dp2769
sI67
(dp2770
sI71
(dp2771
sI74
(dp2772
sI77
(dp2773
sI92
(dp2774
sI103
(dp2775
sI105
(dp2776
sI106
(dp2777
sI107
(dp2778
sI111
(dp2779
sI112
(dp2780
sI114
(dp2781
ssI7
(dp2782
I66
(dp2783
sI67
(dp2784
sI68
(dp2785
sI69
(dp2786
sI6
g2760
sI103
(dp2787
sI10
(dp2788
sI75
(dp2789
sI79
(dp2790
sI56
(dp2791
sI57
(dp2792
sI102
(dp2793
ssI8
(dp2794
I66
(dp2795
sI67
(dp2796
sI68
(dp2797
sI102
(dp2798
sI6
g2761
sI103
(dp2799
sI83
(dp2800
sI48
(dp2801
sI51
(dp2802
sI53
(dp2803
ssI9
(dp2804
I96
(dp2805
sI66
(dp2806
sI6
g2762
sI105
(dp2807
sI94
(dp2808
sI14
(dp2809
sI48
(dp2810
sI113
(dp2811
sI114
(dp2812
sI51
(dp2813
sI53
(dp2814
sI93
(dp2815
sI62
(dp2816
sI85
(dp2817
ssI10
(dp2818
I116
(dp2819
sI98
(dp2820
sI101
(dp2821
sI7
g2788
sI108
(dp2822
sI12
(dp2823
sI109
(dp2824
sI110
(dp2825
sI113
(dp2826
sI84
(dp2827
sI23
(dp2828
sI89
(dp2829
sI91
(dp2830
ssI11
(dp2831
I101
(dp2832
sI70
(dp2833
sI12
(dp2834
sI13
(dp2835
sI78
(dp2836
sI113
(dp2837
sI86
(dp2838
sI87
(dp2839
sI58
(dp2840
ssI12
(dp2841
I96
(dp2842
sI39
(dp2843
sI72
(dp2844
sI73
(dp2845
sI10
g2823
sI11
g2834
sI76
(dp2846
sI13
(dp2847
sI59
(dp2848
ssI13
(dp2849
I65
(dp2850
sI97
(dp2851
sI72
(dp2852
sI73
(dp2853
sI42
(dp2854
sI11
g2835
sI12
g2847
sI79
(dp2855
sI83
(dp2856
ssI14
(dp2857
I64
(dp2858
sI65
(dp2859
sI99
(dp2860
sI101
(dp2861
sI72
(dp2862
sI9
g2809
sI108
(dp2863
sI46
(dp2864
sI15
(dp2865
sI16
(dp2866
sI73
(dp2867
sI63
(dp2868
ssI15
(dp2869
I113
(dp2870
sI36
(dp2871
sI103
(dp2872
sI41
(dp2873
sI106
(dp2874
sI14
g2865
sI111
(dp2875
sI17
(dp2876
sI114
(dp2877
sI83
(dp2878
sI20
(dp2879
sI21
(dp2880
sI105
(dp2881
sI90
(dp2882
sI92
(dp2883
sI93
(dp2884
sI94
(dp2885
ssI16
(dp2886
I14
g2866
sI30
(dp2887
sI54
(dp2888
sI60
(dp2889
sI65
(dp2890
sI70
(dp2891
sI71
(dp2892
sI76
(dp2893
sI80
(dp2894
sI81
(dp2895
sI82
(dp2896
sI84
(dp2897
sI85
(dp2898
sI88
(dp2899
sI89
(dp2900
sI90
(dp2901
sI91
(dp2902
sI97
(dp2903
sI98
(dp2904
sI102
(dp2905
sI104
(dp2906
sI106
(dp2907
sI107
(dp2908
sI108
(dp2909
sI111
(dp2910
sI112
(dp2911
ssI17
(dp2912
I41
(dp2913
sI15
g2876
sI18
(dp2914
sI19
(dp2915
sI20
(dp2916
sI21
(dp2917
sI86
(dp2918
sI87
(dp2919
sI89
(dp2920
sI90
(dp2921
sI85
(dp2922
ssI18
(dp2923
I36
(dp2924
sI17
g2914
sI19
(dp2925
sI20
(dp2926
sI21
(dp2927
sI89
(dp2928
sI87
(dp2929
sI88
(dp2930
sI84
(dp2931
sI91
(dp2932
sI60
(dp2933
ssI19
(dp2934
I64
(dp2935
sI98
(dp2936
sI99
(dp2937
sI100
(dp2938
sI41
(dp2939
sI95
(dp2940
sI108
(dp2941
sI50
(dp2942
sI17
g2915
sI18
g2925
sI83
(dp2943
sI20
(dp2944
sI85
(dp2945
sI91
(dp2946
sI62
(dp2947
sI63
(dp2948
ssI20
(dp2949
I15
g2879
sI17
g2916
sI18
g2926
sI19
g2944
sI36
(dp2950
sI57
(dp2951
sI58
(dp2952
sI59
(dp2953
sI60
(dp2954
sI66
(dp2955
sI67
(dp2956
sI68
(dp2957
sI69
(dp2958
sI70
(dp2959
sI71
(dp2960
sI74
(dp2961
sI75
(dp2962
sI77
(dp2963
sI78
(dp2964
sI89
(dp2965
sI91
(dp2966
sI92
(dp2967
sI102
(dp2968
ssI21
(dp2969
I66
(dp2970
sI67
(dp2971
sI36
(dp2972
sI74
(dp2973
sI75
(dp2974
sI76
(dp2975
sI15
g2880
sI17
g2917
sI18
g2927
sI68
(dp2976
sI31
(dp2977
ssI22
(dp2978
I64
(dp2979
sI50
(dp2980
sI84
(dp2981
sI86
(dp2982
sI23
(dp2983
sI24
(dp2984
sI63
(dp2985
ssI23
(dp2986
I97
(dp2987
sI3
g2733
sI10
g2828
sI43
(dp2988
sI112
(dp2989
sI107
(dp2990
sI22
g2983
sI87
(dp2991
sI42
(dp2992
sI95
(dp2993
ssI24
(dp2994
I69
(dp2995
sI39
(dp2996
sI85
(dp2997
sI86
(dp2998
sI87
(dp2999
sI22
g2984
sI91
(dp3000
sI29
(dp3001
ssI25
(dp3002
I100
(dp3003
sI102
(dp3004
sI103
(dp3005
sI106
(dp3006
sI107
(dp3007
sI108
(dp3008
sI109
(dp3009
sI115
(dp3010
sI86
(dp3011
sI87
(dp3012
sI26
(dp3013
ssI26
(dp3014
I64
(dp3015
sI99
(dp3016
sI72
(dp3017
sI73
(dp3018
sI43
(dp3019
sI108
(dp3020
sI46
(dp3021
sI111
(dp3022
sI112
(dp3023
sI83
(dp3024
sI85
(dp3025
sI86
(dp3026
sI25
g3013
sI27
(dp3027
sI62
(dp3028
ssI27
(dp3029
I100
(dp3030
sI102
(dp3031
sI40
(dp3032
sI105
(dp3033
sI107
(dp3034
sI93
(dp3035
sI88
(dp3036
sI89
(dp3037
sI26
g3027
sI90
(dp3038
ssI28
(dp3039
I1
g2698
sI2
g2718
sI4
g2742
sI5
g2756
sI105
(dp3040
sI101
(dp3041
sI112
(dp3042
sI113
(dp3043
sI114
(dp3044
sI116
(dp3045
sI86
(dp3046
sI87
(dp3047
sI100
(dp3048
sI92
(dp3049
sI94
(dp3050
sI95
(dp3051
ssI29
(dp3052
I32
(dp3053
sI33
(dp3054
sI102
(dp3055
sI103
(dp3056
sI106
(dp3057
sI43
(dp3058
sI24
g3001
sI95
(dp3059
sI92
(dp3060
sI61
(dp3061
sI30
(dp3062
sI31
(dp3063
ssI30
(dp3064
I96
(dp3065
sI106
(dp3066
sI107
(dp3067
sI29
g3062
sI16
g2887
sI85
(dp3068
sI86
(dp3069
sI87
(dp3070
sI111
(dp3071
sI93
(dp3072
ssI31
(dp3073
I32
(dp3074
sI112
(dp3075
sI34
(dp3076
sI69
(dp3077
sI71
(dp3078
sI66
(dp3079
sI111
(dp3080
sI48
(dp3081
sI50
(dp3082
sI21
g2977
sI57
(dp3083
sI29
g3063
sI94
(dp3084
ssI32
(dp3085
I33
(dp3086
sI2
g2701
sI69
(dp3087
sI70
(dp3088
sI71
(dp3089
sI42
(dp3090
sI34
(dp3091
sI102
(dp3092
sI95
(dp3093
sI29
g3053
sI31
g3074
ssI33
(dp3094
I32
g3086
sI34
(dp3095
sI35
(dp3096
sI100
(dp3097
sI48
(dp3098
sI29
g3054
ssI34
(dp3099
I32
g3091
sI33
g3095
sI102
(dp3100
sI103
(dp3101
sI74
(dp3102
sI43
(dp3103
sI77
(dp3104
sI78
(dp3105
sI80
(dp3106
sI82
(dp3107
sI60
(dp3108
sI31
g3076
ssI35
(dp3109
I33
g3096
sI98
(dp3110
sI100
(dp3111
sI38
(dp3112
sI97
(dp3113
sI108
(dp3114
sI45
(dp3115
sI46
(dp3116
sI51
(dp3117
sI85
(dp3118
sI88
(dp3119
sI89
(dp3120
sI90
(dp3121
ssI36
(dp3122
I100
(dp3123
sI101
(dp3124
sI105
(dp3125
sI42
(dp3126
sI108
(dp3127
sI114
(dp3128
sI15
g2871
sI113
(dp3129
sI18
g2924
sI51
(dp3130
sI20
g2950
sI21
g2972
sI61
(dp3131
sI62
(dp3132
ssI37
(dp3133
I98
(dp3134
sI99
(dp3135
sI38
(dp3136
sI41
(dp3137
sI110
(dp3138
sI115
(dp3139
sI113
(dp3140
sI114
(dp3141
sI83
(dp3142
sI116
(dp3143
sI90
(dp3144
ssI38
(dp3145
I66
(dp3146
sI67
(dp3147
sI37
g3136
sI106
(dp3148
sI107
(dp3149
sI108
(dp3150
sI98
(dp3151
sI109
(dp3152
sI35
g3112
sI54
(dp3153
sI55
(dp3154
ssI39
(dp3155
I102
(dp3156
sI103
(dp3157
sI12
g2843
sI111
(dp3158
sI112
(dp3159
sI85
(dp3160
sI24
g2996
sI91
(dp3161
ssI40
(dp3162
I4
g2740
sI69
(dp3163
sI72
(dp3164
sI74
(dp3165
sI76
(dp3166
sI78
(dp3167
sI49
(dp3168
sI56
(dp3169
sI27
g3032
sI61
(dp3170
sI62
(dp3171
ssI41
(dp3172
I37
g3137
sI15
g2873
sI17
g2913
sI19
g2939
sI90
(dp3173
sI61
(dp3174
sI62
(dp3175
ssI42
(dp3176
I32
g3090
sI65
(dp3177
sI67
(dp3178
sI36
g3126
sI72
(dp3179
sI23
g2992
sI13
g2854
sI46
(dp3180
sI80
(dp3181
sI81
(dp3182
sI82
(dp3183
sI55
(dp3184
ssI43
(dp3185
I64
(dp3186
sI65
(dp3187
sI34
g3103
sI75
(dp3188
sI70
(dp3189
sI73
(dp3190
sI74
(dp3191
sI23
g2988
sI58
(dp3192
sI55
(dp3193
sI56
(dp3194
sI26
g3019
sI29
g3058
sI62
(dp3195
sI63
(dp3196
ssI44
(dp3197
I64
(dp3198
sI71
(dp3199
sI61
(dp3200
sI70
(dp3201
sI63
(dp3202
ssI45
(dp3203
I35
g3115
sI68
(dp3204
sI72
(dp3205
sI73
(dp3206
sI81
(dp3207
sI82
(dp3208
sI52
(dp3209
sI53
(dp3210
sI57
(dp3211
ssI46
(dp3212
I35
g3116
sI70
(dp3213
sI71
(dp3214
sI42
g3180
sI75
(dp3215
sI77
(dp3216
sI14
g2864
sI82
(dp3217
sI54
(dp3218
sI57
(dp3219
sI26
g3021
sI74
(dp3220
ssI47
(dp3221
I69
(dp3222
sI70
(dp3223
sI71
(dp3224
sI75
(dp3225
sI76
(dp3226
sI77
(dp3227
sI79
(dp3228
sI80
(dp3229
sI81
(dp3230
sI82
(dp3231
sI56
(dp3232
sI58
(dp3233
ssI48
(dp3234
I0
g2685
sI33
g3098
sI67
(dp3235
sI68
(dp3236
sI8
g2801
sI9
g2810
sI76
(dp3237
sI77
(dp3238
sI78
(dp3239
sI79
(dp3240
sI80
(dp3241
sI55
(dp3242
sI59
(dp3243
sI31
g3081
ssI49
(dp3244
I40
g3168
sI56
(dp3245
sI82
(dp3246
sI72
(dp3247
sI80
(dp3248
ssI50
(dp3249
I3
g2731
sI68
(dp3250
sI22
g2980
sI19
g2942
sI54
(dp3251
sI31
g3082
ssI51
(dp3252
I0
g2686
sI35
g3117
sI36
g3130
sI8
g2802
sI9
g2813
sI79
(dp3253
sI80
(dp3254
sI81
(dp3255
sI82
(dp3256
ssI52
(dp3257
I81
(dp3258
sI82
(dp3259
sI79
(dp3260
sI45
g3209
sI77
(dp3261
ssI53
(dp3262
I8
g2803
sI9
g2814
sI45
g3210
sI73
(dp3263
ssI54
(dp3264
I38
g3153
sI73
(dp3265
sI77
(dp3266
sI46
g3218
sI16
g2888
sI50
g3251
sI78
(dp3267
ssI55
(dp3268
I67
(dp3269
sI38
g3154
sI42
g3184
sI43
g3193
sI48
g3242
sI75
(dp3270
ssI56
(dp3271
I7
g2791
sI40
g3169
sI43
g3194
sI47
g3232
sI49
g3245
sI59
(dp3272
sI60
(dp3273
ssI57
(dp3274
I6
g2763
sI7
g2792
sI45
g3211
sI46
g3219
sI80
(dp3275
sI20
g2951
sI31
g3083
ssI58
(dp3276
I11
g2840
sI6
g2764
sI74
(dp3277
sI43
g3192
sI77
(dp3278
sI47
g3233
sI75
(dp3279
sI20
g2952
ssI59
(dp3280
I12
g2848
sI79
(dp3281
sI48
g3243
sI81
(dp3282
sI82
(dp3283
sI20
g2953
sI56
g3272
sI60
(dp3284
ssI60
(dp3285
I34
g3108
sI6
g2765
sI77
(dp3286
sI78
(dp3287
sI16
g2889
sI18
g2933
sI20
g2954
sI56
g3273
sI59
g3284
ssI61
(dp3288
I36
g3131
sI5
g2757
sI40
g3170
sI41
g3174
sI44
g3200
sI29
g3061
sI63
(dp3289
ssI62
(dp3290
I2
g2719
sI36
g3132
sI6
g2766
sI40
g3171
sI9
g2816
sI43
g3195
sI19
g2947
sI41
g3175
sI26
g3028
sI63
(dp3291
ssI63
(dp3292
I64
(dp3293
sI1
g2699
sI3
g2736
sI6
g2767
sI43
g3196
sI44
g3202
sI14
g2868
sI19
g2948
sI22
g2985
sI61
g3289
sI62
g3291
ssI64
(dp3294
I1
g2690
sI3
g2726
sI6
g2768
sI43
g3186
sI44
g3198
sI14
g2858
sI19
g2935
sI22
g2979
sI26
g3015
sI63
g3293
ssI65
(dp3295
I80
(dp3296
sI5
g2746
sI73
(dp3297
sI42
g3177
sI43
g3187
sI13
g2850
sI14
g2859
sI16
g2890
ssI66
(dp3298
I3
g2728
sI68
(dp3299
sI38
g3146
sI6
g2769
sI7
g2783
sI8
g2795
sI9
g2806
sI20
g2955
sI21
g2970
sI31
g3079
ssI67
(dp3300
I3
g2722
sI68
(dp3301
sI6
g2770
sI38
g3147
sI7
g2784
sI8
g2796
sI42
g3178
sI48
g3235
sI20
g2956
sI21
g2971
sI55
g3269
ssI68
(dp3302
I66
g3299
sI67
g3301
sI7
g2785
sI8
g2797
sI45
g3204
sI48
g3236
sI50
g3250
sI3
g2734
sI20
g2957
sI21
g2976
ssI69
(dp3303
I32
g3087
sI2
g2720
sI3
g2735
sI70
(dp3304
sI7
g2786
sI40
g3163
sI47
g3222
sI20
g2958
sI24
g2995
sI31
g3077
ssI70
(dp3305
I32
g3088
sI43
g3189
sI69
g3304
sI71
(dp3306
sI11
g2833
sI44
g3201
sI46
g3213
sI47
g3223
sI16
g2891
sI3
g2725
sI20
g2959
ssI71
(dp3307
I32
g3089
sI4
g2739
sI70
g3306
sI6
g2771
sI44
g3199
sI46
g3214
sI47
g3224
sI16
g2892
sI20
g2960
sI31
g3078
ssI72
(dp3308
I5
g2747
sI40
g3164
sI73
(dp3309
sI42
g3179
sI12
g2844
sI13
g2852
sI14
g2862
sI45
g3205
sI49
g3247
sI26
g3017
ssI73
(dp3310
I65
g3297
sI5
g2748
sI72
g3309
sI43
g3190
sI12
g2845
sI13
g2853
sI14
g2867
sI45
g3206
sI53
g3263
sI54
g3265
sI26
g3018
ssI74
(dp3311
I0
g2682
sI34
g3102
sI75
(dp3312
sI6
g2772
sI40
g3165
sI43
g3191
sI46
g3220
sI20
g2961
sI21
g2973
sI58
g3277
ssI75
(dp3313
I0
g2683
sI7
g2789
sI74
g3312
sI43
g3188
sI46
g3215
sI47
g3225
sI20
g2962
sI21
g2974
sI55
g3270
sI58
g3279
ssI76
(dp3314
I48
g3237
sI40
g3166
sI12
g2846
sI77
(dp3315
sI78
(dp3316
sI47
g3226
sI16
g2893
sI21
g2975
ssI77
(dp3317
I34
g3104
sI6
g2773
sI76
g3315
sI46
g3216
sI47
g3227
sI48
g3238
sI20
g2963
sI78
(dp3318
sI54
g3266
sI52
g3261
sI58
g3278
sI60
g3286
ssI78
(dp3319
I34
g3105
sI3
g2729
sI40
g3167
sI11
g2836
sI76
g3316
sI77
g3318
sI48
g3239
sI20
g2964
sI54
g3267
sI60
g3287
ssI79
(dp3320
I7
g2790
sI13
g2855
sI47
g3228
sI48
g3240
sI81
(dp3321
sI51
g3253
sI52
g3260
sI59
g3281
ssI80
(dp3322
I48
g3241
sI34
g3106
sI81
(dp3323
sI65
g3296
sI42
g3181
sI47
g3229
sI16
g2894
sI49
g3248
sI51
g3254
sI57
g3275
ssI81
(dp3324
I79
g3321
sI80
g3323
sI42
g3182
sI45
g3207
sI47
g3230
sI16
g2895
sI82
(dp3325
sI51
g3255
sI52
g3258
sI59
g3282
ssI82
(dp3326
I34
g3107
sI81
g3325
sI42
g3183
sI45
g3208
sI46
g3217
sI47
g3231
sI16
g2896
sI49
g3246
sI51
g3256
sI52
g3259
sI59
g3283
ssI83
(dp3327
I1
g2694
sI37
g3142
sI8
g2800
sI13
g2856
sI15
g2878
sI19
g2943
sI26
g3024
sI91
(dp3328
ssI84
(dp3329
I1
g2695
sI2
g2713
sI10
g2827
sI16
g2897
sI18
g2931
sI22
g2981
sI88
(dp3330
sI91
(dp3331
ssI85
(dp3332
I35
g3118
sI39
g3160
sI9
g2817
sI16
g2898
sI17
g2922
sI19
g2945
sI24
g2997
sI26
g3025
sI91
(dp3333
sI30
g3068
ssI86
(dp3334
I1
g2696
sI11
g2838
sI17
g2918
sI22
g2982
sI87
(dp3335
sI24
g2998
sI25
g3011
sI26
g3026
sI28
g3046
sI30
g3069
ssI87
(dp3336
I1
g2697
sI11
g2839
sI17
g2919
sI18
g2929
sI86
g3335
sI23
g2991
sI24
g2999
sI25
g3012
sI28
g3047
sI30
g3070
ssI88
(dp3337
I0
g2687
sI2
g2714
sI35
g3119
sI16
g2899
sI18
g2930
sI84
g3330
sI89
(dp3338
sI90
(dp3339
sI27
g3036
ssI89
(dp3340
I2
g2715
sI35
g3120
sI10
g2829
sI16
g2900
sI17
g2920
sI18
g2928
sI20
g2965
sI88
g3338
sI90
(dp3341
sI27
g3037
ssI90
(dp3342
I2
g2716
sI35
g3121
sI37
g3144
sI41
g3173
sI15
g2882
sI16
g2901
sI17
g2921
sI88
g3339
sI89
g3341
sI27
g3038
ssI91
(dp3343
I83
g3328
sI39
g3161
sI10
g2830
sI2
g2717
sI16
g2902
sI18
g2932
sI19
g2946
sI20
g2966
sI85
g3333
sI24
g3000
sI84
g3331
ssI92
(dp3344
I97
(dp3345
sI5
g2753
sI6
g2774
sI110
(dp3346
sI15
g2883
sI115
(dp3347
sI20
g2967
sI28
g3049
sI29
g3060
sI95
(dp3348
ssI93
(dp3349
I98
(dp3350
sI5
g2752
sI9
g2815
sI106
(dp3351
sI109
(dp3352
sI15
g2884
sI115
(dp3353
sI116
(dp3354
sI27
g3035
sI30
g3072
ssI94
(dp3355
I97
(dp3356
sI99
(dp3357
sI5
g2758
sI104
(dp3358
sI9
g2808
sI15
g2885
sI105
(dp3359
sI111
(dp3360
sI28
g3050
sI31
g3084
ssI95
(dp3361
I32
g3093
sI96
(dp3362
sI4
g2743
sI104
(dp3363
sI92
g3348
sI109
(dp3364
sI19
g2940
sI23
g2993
sI28
g3051
sI29
g3059
ssI96
(dp3365
I99
(dp3366
sI4
g2741
sI104
(dp3367
sI9
g2805
sI12
g2842
sI109
(dp3368
sI30
g3065
sI95
g3362
ssI97
(dp3369
I2
g2706
sI35
g3113
sI4
g2738
sI13
g2851
sI16
g2903
sI114
(dp3370
sI23
g2987
sI92
g3345
sI94
g3356
ssI98
(dp3371
I2
g2702
sI35
g3110
sI37
g3134
sI38
g3151
sI105
(dp3372
sI10
g2820
sI108
(dp3373
sI16
g2904
sI19
g2936
sI93
g3350
ssI99
(dp3374
I96
g3366
sI2
g2712
sI115
(dp3375
sI100
(dp3376
sI5
g2754
sI104
(dp3377
sI109
(dp3378
sI14
g2860
sI19
g2937
sI116
(dp3379
sI110
(dp3380
sI26
g3016
sI94
g3357
sI37
g3135
ssI100
(dp3381
I33
g3097
sI35
g3111
sI36
g3123
sI110
(dp3382
sI99
g3376
sI115
(dp3383
sI19
g2938
sI116
(dp3384
sI25
g3003
sI27
g3030
sI28
g3048
ssI101
(dp3385
I2
g2709
sI36
g3124
sI104
(dp3386
sI10
g2821
sI11
g2832
sI14
g2861
sI113
(dp3387
sI115
(dp3388
sI116
(dp3389
sI28
g3041
ssI102
(dp3390
I32
g3092
sI34
g3100
sI5
g2745
sI7
g2793
sI8
g2798
sI103
(dp3391
sI39
g3156
sI16
g2905
sI20
g2968
sI25
g3004
sI27
g3031
sI29
g3055
ssI103
(dp3392
I34
g3101
sI102
g3391
sI6
g2775
sI7
g2787
sI8
g2799
sI39
g3157
sI2
g2708
sI15
g2872
sI25
g3005
sI29
g3056
ssI104
(dp3393
I96
g3367
sI99
g3377
sI101
g3386
sI16
g2906
sI115
(dp3394
sI116
(dp3395
sI94
g3358
sI95
g3363
ssI105
(dp3396
I2
g2707
sI36
g3125
sI6
g2776
sI9
g2807
sI98
g3372
sI15
g2881
sI114
(dp3397
sI27
g3033
sI28
g3040
sI94
g3359
ssI106
(dp3398
I0
g2688
sI5
g2749
sI6
g2777
sI107
(dp3399
sI93
g3351
sI15
g2874
sI16
g2907
sI25
g3006
sI38
g3148
sI29
g3057
sI30
g3066
ssI107
(dp3400
I0
g2675
sI5
g2750
sI6
g2778
sI38
g3149
sI106
g3399
sI16
g2908
sI23
g2990
sI25
g3007
sI27
g3034
sI30
g3067
ssI108
(dp3401
I3
g2727
sI98
g3373
sI35
g3114
sI36
g3127
sI38
g3150
sI10
g2822
sI14
g2863
sI16
g2909
sI19
g2941
sI25
g3008
sI26
g3020
ssI109
(dp3402
I96
g3368
sI99
g3378
sI38
g3152
sI10
g2824
sI110
(dp3403
sI3
g2730
sI25
g3009
sI93
g3352
sI95
g3364
ssI110
(dp3404
I99
g3380
sI100
g3382
sI37
g3138
sI10
g2825
sI109
g3403
sI115
(dp3405
sI3
g2732
sI116
(dp3406
sI92
g3346
ssI111
(dp3407
I0
g2684
sI112
(dp3408
sI5
g2755
sI6
g2779
sI39
g3158
sI15
g2875
sI16
g2910
sI94
g3360
sI26
g3022
sI30
g3071
sI31
g3080
ssI112
(dp3409
I0
g2681
sI5
g2751
sI6
g2780
sI39
g3159
sI111
g3408
sI16
g2911
sI23
g2989
sI26
g3023
sI28
g3042
sI31
g3075
ssI113
(dp3410
I2
g2710
sI36
g3129
sI37
g3140
sI9
g2811
sI10
g2826
sI11
g2837
sI15
g2870
sI114
(dp3411
sI28
g3043
sI101
g3387
ssI114
(dp3412
I97
g3370
sI2
g2711
sI36
g3128
sI37
g3141
sI6
g2781
sI9
g2812
sI15
g2877
sI113
g3411
sI105
g3397
sI28
g3044
ssI115
(dp3413
I99
g3375
sI100
g3383
sI37
g3139
sI104
g3394
sI110
g3405
sI116
(dp3414
sI25
g3010
sI92
g3347
sI93
g3353
sI101
g3388
ssI116
(dp3415
I99
g3379
sI100
g3384
sI101
g3389
sI104
g3395
sI10
g2819
sI110
g3406
sI115
g3414
sI28
g3045
sI93
g3354
sI37
g3143
sssg857
(dp3416
sg859
g127
sg860
g2673
sbag2
(g3
g4
NtRp3417
(dp3418
g7
(dp3419
I0
(dp3420
sI1
(dp3421
sI2
(dp3422
sI3
(dp3423
sI4
(dp3424
sI5
(dp3425
sI6
(dp3426
sI7
(dp3427
sI8
(dp3428
sI9
(dp3429
sI10
(dp3430
sI11
(dp3431
sI12
(dp3432
sI13
(dp3433
sI14
(dp3434
sI15
(dp3435
sI16
(dp3436
sI17
(dp3437
sI18
(dp3438
sI19
(dp3439
sI20
(dp3440
sI21
(dp3441
sI22
(dp3442
sI23
(dp3443
sI24
(dp3444
sI25
(dp3445
sI26
(dp3446
sI27
(dp3447
sI28
(dp3448
sI29
(dp3449
sI30
(dp3450
sI31
(dp3451
sI32
(dp3452
sI33
(dp3453
sI34
(dp3454
sI35
(dp3455
sI36
(dp3456
sI37
(dp3457
sI38
(dp3458
sI39
(dp3459
sI40
(dp3460
sI41
(dp3461
sI42
(dp3462
sI43
(dp3463
sI44
(dp3464
sI45
(dp3465
sI46
(dp3466
sI47
(dp3467
sI48
(dp3468
sI49
(dp3469
sI50
(dp3470
sI51
(dp3471
sI52
(dp3472
sI53
(dp3473
sI54
(dp3474
sI55
(dp3475
sI56
(dp3476
sI57
(dp3477
sI58
(dp3478
sI59
(dp3479
sI60
(dp3480
sI61
(dp3481
sI62
(dp3482
sI63
(dp3483
sI64
(dp3484
sI65
(dp3485
sI66
(dp3486
sI67
(dp3487
sI68
(dp3488
sI69
(dp3489
sI70
(dp3490
sI71
(dp3491
sI72
(dp3492
sI73
(dp3493
sI74
(dp3494
sI75
(dp3495
sI76
(dp3496
sI77
(dp3497
sI78
(dp3498
sI79
(dp3499
sI80
(dp3500
sI81
(dp3501
sI82
(dp3502
sI83
(dp3503
sI84
(dp3504
sI85
(dp3505
sI86
(dp3506
sI87
(dp3507
sI88
(dp3508
sI89
(dp3509
sI90
(dp3510
sI91
(dp3511
sI92
(dp3512
sI93
(dp3513
sI94
(dp3514
sI95
(dp3515
sI96
(dp3516
sI97
(dp3517
sI98
(dp3518
sI99
(dp3519
sI100
(dp3520
sI101
(dp3521
sI102
(dp3522
sI103
(dp3523
sI104
(dp3524
sI105
(dp3525
sI106
(dp3526
sI107
(dp3527
sI108
(dp3528
sI109
(dp3529
sI110
(dp3530
sI111
(dp3531
sI112
(dp3532
sI113
(dp3533
sI114
(dp3534
sI115
(dp3535
sI116
(dp3536
ssg126
g127
sg128
g127
sg129
(dp3537
I0
(dp3538
I1
(dp3539
sI2
(dp3540
sI3
(dp3541
sI4
(dp3542
sI5
(dp3543
sI43
(dp3544
sI45
(dp3545
sI77
(dp3546
sI47
(dp3547
sI112
(dp3548
sI82
(dp3549
sI67
(dp3550
sI78
(dp3551
sI83
(dp3552
sI57
(dp3553
sI58
(dp3554
sI59
(dp3555
sI101
(dp3556
sI85
(dp3557
sI63
(dp3558
ssI1
(dp3559
I0
g3539
sI3
(dp3560
sI4
(dp3561
sI5
(dp3562
sI67
(dp3563
sI55
(dp3564
sI56
(dp3565
sI28
(dp3566
sI61
(dp3567
ssI2
(dp3568
I0
g3540
sI32
(dp3569
sI3
(dp3570
sI4
(dp3571
sI5
(dp3572
sI110
(dp3573
sI54
(dp3574
sI57
(dp3575
sI91
(dp3576
sI28
(dp3577
ssI3
(dp3578
I0
g3541
sI1
g3560
sI2
g3570
sI4
(dp3579
sI5
(dp3580
sI73
(dp3581
sI75
(dp3582
sI108
(dp3583
sI110
(dp3584
sI111
(dp3585
sI50
(dp3586
sI23
(dp3587
sI88
(dp3588
ssI4
(dp3589
I0
g3542
sI1
g3561
sI2
g3571
sI3
g3579
sI103
(dp3590
sI40
(dp3591
sI105
(dp3592
sI106
(dp3593
sI43
(dp3594
sI109
(dp3595
sI110
(dp3596
sI88
(dp3597
sI28
(dp3598
ssI5
(dp3599
I0
g3543
sI1
g3562
sI2
g3572
sI3
g3580
sI68
(dp3600
sI81
(dp3601
sI47
(dp3602
sI48
(dp3603
sI49
(dp3604
sI28
(dp3605
sI93
(dp3606
ssI6
(dp3607
I7
(dp3608
sI8
(dp3609
sI9
(dp3610
sI87
(dp3611
sI46
(dp3612
sI48
(dp3613
sI49
(dp3614
sI84
(dp3615
sI86
(dp3616
sI55
(dp3617
sI56
(dp3618
ssI7
(dp3619
I115
(dp3620
sI6
g3608
sI92
(dp3621
sI10
(dp3622
sI45
(dp3623
sI110
(dp3624
sI48
(dp3625
sI49
(dp3626
sI50
(dp3627
sI51
(dp3628
sI52
(dp3629
sI53
(dp3630
sI86
(dp3631
sI60
(dp3632
sI63
(dp3633
ssI8
(dp3634
I6
g3609
sI45
(dp3635
sI47
(dp3636
sI48
(dp3637
sI54
(dp3638
sI55
(dp3639
sI56
(dp3640
sI67
(dp3641
sI68
(dp3642
sI72
(dp3643
sI74
(dp3644
sI77
(dp3645
sI78
(dp3646
sI79
(dp3647
sI83
(dp3648
sI84
(dp3649
sI90
(dp3650
sI93
(dp3651
sI94
(dp3652
sI95
(dp3653
sI96
(dp3654
sI106
(dp3655
sI112
(dp3656
sI113
(dp3657
ssI9
(dp3658
I64
(dp3659
sI65
(dp3660
sI66
(dp3661
sI100
(dp3662
sI69
(dp3663
sI6
g3610
sI72
(dp3664
sI74
(dp3665
sI77
(dp3666
sI14
(dp3667
sI79
(dp3668
sI78
(dp3669
sI58
(dp3670
sI59
(dp3671
sI101
(dp3672
ssI10
(dp3673
I100
(dp3674
sI101
(dp3675
sI7
g3622
sI12
(dp3676
sI23
(dp3677
sI89
(dp3678
sI92
(dp3679
ssI11
(dp3680
I83
(dp3681
sI106
(dp3682
sI43
(dp3683
sI12
(dp3684
sI13
(dp3685
sI110
(dp3686
sI45
(dp3687
sI113
(dp3688
sI82
(dp3689
sI51
(dp3690
sI84
(dp3691
sI57
(dp3692
sI62
(dp3693
ssI12
(dp3694
I81
(dp3695
sI39
(dp3696
sI42
(dp3697
sI11
g3684
sI108
(dp3698
sI13
(dp3699
sI46
(dp3700
sI93
(dp3701
sI48
(dp3702
sI49
(dp3703
sI83
(dp3704
sI10
g3676
ssI13
(dp3705
I68
(dp3706
sI11
g3685
sI12
g3699
sI54
(dp3707
ssI14
(dp3708
I80
(dp3709
sI98
(dp3710
sI9
g3667
sI15
(dp3711
sI16
(dp3712
sI114
(dp3713
sI51
(dp3714
sI84
(dp3715
sI85
(dp3716
sI55
(dp3717
sI56
(dp3718
ssI15
(dp3719
I36
(dp3720
sI104
(dp3721
sI41
(dp3722
sI107
(dp3723
sI110
(dp3724
sI14
g3711
sI111
(dp3725
sI112
(dp3726
sI17
(dp3727
sI114
(dp3728
sI20
(dp3729
sI21
(dp3730
sI68
(dp3731
sI90
(dp3732
sI91
(dp3733
ssI16
(dp3734
I67
(dp3735
sI93
(dp3736
sI14
g3712
sI89
(dp3737
sI54
(dp3738
sI55
(dp3739
sI56
(dp3740
sI57
(dp3741
sI90
(dp3742
sI59
(dp3743
sI61
(dp3744
sI30
(dp3745
ssI17
(dp3746
I64
(dp3747
sI65
(dp3748
sI66
(dp3749
sI41
(dp3750
sI15
g3727
sI18
(dp3751
sI19
(dp3752
sI20
(dp3753
sI21
(dp3754
sI60
(dp3755
ssI18
(dp3756
I107
(dp3757
sI36
(dp3758
sI73
(dp3759
sI43
(dp3760
sI44
(dp3761
sI112
(dp3762
sI17
g3751
sI19
(dp3763
sI20
(dp3764
sI21
(dp3765
sI57
(dp3766
ssI19
(dp3767
I64
(dp3768
sI65
(dp3769
sI66
(dp3770
sI107
(dp3771
sI68
(dp3772
sI69
(dp3773
sI103
(dp3774
sI41
(dp3775
sI75
(dp3776
sI44
(dp3777
sI50
(dp3778
sI17
g3752
sI18
g3763
sI20
(dp3779
sI105
(dp3780
sI91
(dp3781
sI92
(dp3782
ssI20
(dp3783
I36
(dp3784
sI103
(dp3785
sI105
(dp3786
sI107
(dp3787
sI109
(dp3788
sI15
g3729
sI112
(dp3789
sI17
g3753
sI18
g3764
sI19
g3779
sI113
(dp3790
sI55
(dp3791
sI56
(dp3792
sI89
(dp3793
sI90
(dp3794
sI59
(dp3795
sI60
(dp3796
sI111
(dp3797
ssI21
(dp3798
I36
(dp3799
sI43
(dp3800
sI15
g3730
sI17
g3754
sI18
g3765
sI31
(dp3801
ssI22
(dp3802
I44
(dp3803
sI46
(dp3804
sI47
(dp3805
sI49
(dp3806
sI23
(dp3807
sI24
(dp3808
sI60
(dp3809
sI61
(dp3810
ssI23
(dp3811
I112
(dp3812
sI67
(dp3813
sI3
g3587
sI73
(dp3814
sI10
g3677
sI107
(dp3815
sI44
(dp3816
sI45
(dp3817
sI115
(dp3818
sI48
(dp3819
sI49
(dp3820
sI51
(dp3821
sI52
(dp3822
sI53
(dp3823
sI22
g3807
sI116
(dp3824
ssI24
(dp3825
I64
(dp3826
sI65
(dp3827
sI66
(dp3828
sI67
(dp3829
sI69
(dp3830
sI39
(dp3831
sI92
(dp3832
sI44
(dp3833
sI82
(dp3834
sI22
g3808
sI91
(dp3835
sI60
(dp3836
sI29
(dp3837
sI94
(dp3838
ssI25
(dp3839
I107
(dp3840
sI108
(dp3841
sI112
(dp3842
sI57
(dp3843
sI26
(dp3844
sI59
(dp3845
ssI26
(dp3846
I67
(dp3847
sI70
(dp3848
sI75
(dp3849
sI44
(dp3850
sI25
g3844
sI27
(dp3851
ssI27
(dp3852
I64
(dp3853
sI97
(dp3854
sI40
(dp3855
sI73
(dp3856
sI85
(dp3857
sI86
(dp3858
sI26
g3851
sI92
(dp3859
sI61
(dp3860
ssI28
(dp3861
I1
g3566
sI2
g3577
sI68
(dp3862
sI5
g3605
sI70
(dp3863
sI108
(dp3864
sI110
(dp3865
sI111
(dp3866
sI113
(dp3867
sI87
(dp3868
sI4
g3598
ssI29
(dp3869
I32
(dp3870
sI33
(dp3871
sI98
(dp3872
sI70
(dp3873
sI97
(dp3874
sI105
(dp3875
sI103
(dp3876
sI112
(dp3877
sI56
(dp3878
sI54
(dp3879
sI24
g3837
sI88
(dp3880
sI90
(dp3881
sI30
(dp3882
sI31
(dp3883
ssI30
(dp3884
I64
(dp3885
sI65
(dp3886
sI66
(dp3887
sI69
(dp3888
sI97
(dp3889
sI75
(dp3890
sI93
(dp3891
sI61
(dp3892
sI16
g3745
sI113
(dp3893
sI83
(dp3894
sI84
(dp3895
sI85
(dp3896
sI86
(dp3897
sI57
(dp3898
sI60
(dp3899
sI29
g3882
sI94
(dp3900
sI63
(dp3901
ssI31
(dp3902
I32
(dp3903
sI34
(dp3904
sI113
(dp3905
sI81
(dp3906
sI42
(dp3907
sI44
(dp3908
sI45
(dp3909
sI46
(dp3910
sI47
(dp3911
sI49
(dp3912
sI82
(dp3913
sI83
(dp3914
sI84
(dp3915
sI21
g3801
sI86
(dp3916
sI111
(dp3917
sI29
g3883
ssI32
(dp3918
I33
(dp3919
sI2
g3569
sI101
(dp3920
sI72
(dp3921
sI43
(dp3922
sI34
(dp3923
sI46
(dp3924
sI52
(dp3925
sI53
(dp3926
sI54
(dp3927
sI29
g3870
sI31
g3903
ssI33
(dp3928
I32
g3919
sI34
(dp3929
sI35
(dp3930
sI101
(dp3931
sI70
(dp3932
sI42
(dp3933
sI77
(dp3934
sI78
(dp3935
sI81
(dp3936
sI50
(dp3937
sI53
(dp3938
sI54
(dp3939
sI29
g3871
ssI34
(dp3940
I32
g3923
sI33
g3929
sI98
(dp3941
sI97
(dp3942
sI74
(dp3943
sI103
(dp3944
sI77
(dp3945
sI50
(dp3946
sI87
(dp3947
sI91
(dp3948
sI92
(dp3949
sI31
g3904
ssI35
(dp3950
I64
(dp3951
sI33
g3930
sI68
(dp3952
sI38
(dp3953
sI65
(dp3954
sI105
(dp3955
sI42
(dp3956
sI78
(dp3957
sI50
(dp3958
sI51
(dp3959
sI54
(dp3960
sI100
(dp3961
sI60
(dp3962
sI63
(dp3963
ssI36
(dp3964
I15
g3720
sI18
g3758
sI20
g3784
sI21
g3799
sI42
(dp3965
sI43
(dp3966
sI47
(dp3967
sI48
(dp3968
sI50
(dp3969
sI51
(dp3970
sI52
(dp3971
sI54
(dp3972
sI55
(dp3973
sI56
(dp3974
sI84
(dp3975
sI85
(dp3976
sI86
(dp3977
sI87
(dp3978
sI91
(dp3979
sI93
(dp3980
sI94
(dp3981
sI95
(dp3982
sI106
(dp3983
ssI37
(dp3984
I38
(dp3985
sI103
(dp3986
sI41
(dp3987
sI110
(dp3988
sI92
(dp3989
sI87
(dp3990
sI57
(dp3991
sI91
(dp3992
sI60
(dp3993
sI61
(dp3994
sI62
(dp3995
ssI38
(dp3996
I96
(dp3997
sI98
(dp3998
sI35
g3953
sI37
g3985
sI102
(dp3999
sI76
(dp4000
sI81
(dp4001
sI50
(dp4002
ssI39
(dp4003
I64
(dp4004
sI105
(dp4005
sI12
g3696
sI111
(dp4006
sI88
(dp4007
sI24
g3831
sI89
(dp4008
sI91
(dp4009
sI92
(dp4010
sI61
(dp4011
sI62
(dp4012
ssI40
(dp4013
I4
g3591
sI43
(dp4014
sI53
(dp4015
sI55
(dp4016
sI56
(dp4017
sI27
g3855
ssI41
(dp4018
I68
(dp4019
sI37
g3987
sI49
(dp4020
sI46
(dp4021
sI15
g3722
sI48
(dp4022
sI17
g3750
sI19
g3775
ssI42
(dp4023
I33
g3933
sI35
g3956
sI36
g3965
sI12
g3697
sI46
(dp4024
sI48
(dp4025
sI49
(dp4026
sI55
(dp4027
sI31
g3907
ssI43
(dp4028
I0
g3544
sI32
g3922
sI4
g3594
sI40
g4014
sI11
g3683
sI44
(dp4029
sI18
g3760
sI51
(dp4030
sI52
(dp4031
sI21
g3800
sI36
g3966
sI53
(dp4032
ssI44
(dp4033
I51
(dp4034
sI43
g4029
sI18
g3761
sI19
g3777
sI52
(dp4035
sI53
(dp4036
sI22
g3803
sI23
g3816
sI24
g3833
sI26
g3850
sI31
g3908
ssI45
(dp4037
I0
g3545
sI7
g3623
sI8
g3635
sI11
g3687
sI46
(dp4038
sI50
(dp4039
sI51
(dp4040
sI52
(dp4041
sI23
g3817
sI31
g3909
ssI46
(dp4042
I32
g3924
sI6
g3612
sI41
g4021
sI42
g4024
sI12
g3700
sI45
g4038
sI47
(dp4043
sI22
g3804
sI31
g3910
ssI47
(dp4044
I0
g3547
sI36
g3967
sI5
g3602
sI8
g3636
sI46
g4043
sI48
(dp4045
sI22
g3805
sI31
g3911
ssI48
(dp4046
I36
g3968
sI5
g3603
sI6
g3613
sI7
g3625
sI8
g3637
sI41
g4022
sI42
g4025
sI12
g3702
sI47
g4045
sI49
(dp4047
sI23
g3819
ssI49
(dp4048
I5
g3604
sI6
g3614
sI7
g3626
sI41
g4020
sI42
g4026
sI12
g3703
sI48
g4047
sI22
g3806
sI23
g3820
sI31
g3912
ssI50
(dp4049
I3
g3586
sI33
g3937
sI34
g3946
sI35
g3958
sI36
g3969
sI38
g4002
sI7
g3627
sI45
g4039
sI19
g3778
sI52
(dp4050
sI53
(dp4051
sI51
(dp4052
ssI51
(dp4053
I35
g3959
sI36
g3970
sI7
g3628
sI11
g3690
sI44
g4034
sI45
g4040
sI14
g3714
sI43
g4030
sI50
g4052
sI52
(dp4054
sI53
(dp4055
sI23
g3821
ssI52
(dp4056
I32
g3925
sI36
g3971
sI7
g3629
sI43
g4031
sI44
g4035
sI45
g4041
sI50
g4050
sI51
g4054
sI53
(dp4057
sI23
g3822
ssI53
(dp4058
I32
g3926
sI33
g3938
sI7
g3630
sI40
g4015
sI43
g4032
sI44
g4036
sI50
g4051
sI51
g4055
sI52
g4057
sI23
g3823
ssI54
(dp4059
I32
g3927
sI33
g3939
sI2
g3574
sI35
g3960
sI36
g3972
sI8
g3638
sI13
g3707
sI16
g3738
sI55
(dp4060
sI29
g3879
ssI55
(dp4061
I1
g3564
sI36
g3973
sI6
g3617
sI8
g3639
sI42
g4027
sI14
g3717
sI16
g3739
sI40
g4016
sI20
g3791
sI54
g4060
sI56
(dp4062
ssI56
(dp4063
I1
g3565
sI36
g3974
sI6
g3618
sI8
g3640
sI14
g3718
sI16
g3740
sI40
g4017
sI20
g3792
sI55
g4062
sI29
g3878
ssI57
(dp4064
I0
g3553
sI64
(dp4065
sI2
g3575
sI67
(dp4066
sI68
(dp4067
sI37
g3991
sI65
(dp4068
sI11
g3692
sI16
g3741
sI18
g3766
sI62
(dp4069
sI25
g3843
sI61
(dp4070
sI30
g3898
sI63
(dp4071
ssI58
(dp4072
I0
g3554
sI9
g3670
sI67
(dp4073
sI59
(dp4074
ssI59
(dp4075
I0
g3555
sI66
(dp4076
sI68
(dp4077
sI69
(dp4078
sI9
g3671
sI16
g3743
sI20
g3795
sI25
g3845
sI58
g4074
sI61
(dp4079
sI62
(dp4080
sI63
(dp4081
ssI60
(dp4082
I65
(dp4083
sI35
g3962
sI68
(dp4084
sI37
g3993
sI7
g3632
sI17
g3755
sI20
g3796
sI22
g3809
sI24
g3836
sI30
g3899
sI69
(dp4085
ssI61
(dp4086
I1
g3567
sI59
g4079
sI37
g3994
sI65
(dp4087
sI39
g4011
sI16
g3744
sI62
(dp4088
sI22
g3810
sI57
g4070
sI27
g3860
sI30
g3892
sI63
(dp4089
ssI62
(dp4090
I66
(dp4091
sI37
g3995
sI39
g4012
sI11
g3693
sI57
g4069
sI59
g4080
sI61
g4088
sI69
(dp4092
ssI63
(dp4093
I0
g3558
sI66
(dp4094
sI35
g3963
sI69
(dp4095
sI7
g3633
sI57
g4071
sI59
g4081
sI61
g4089
sI30
g3901
ssI64
(dp4096
I66
(dp4097
sI35
g3951
sI39
g4004
sI9
g3659
sI17
g3747
sI19
g3768
sI24
g3826
sI57
g4065
sI27
g3853
sI30
g3885
ssI65
(dp4098
I66
(dp4099
sI35
g3954
sI9
g3660
sI17
g3748
sI19
g3769
sI24
g3827
sI57
g4068
sI60
g4083
sI61
g4087
sI30
g3886
ssI66
(dp4100
I64
g4097
sI65
g4099
sI69
(dp4101
sI9
g3661
sI17
g3749
sI19
g3770
sI30
g3887
sI24
g3828
sI59
g4076
sI62
g4091
sI63
g4094
ssI67
(dp4102
I0
g3550
sI1
g3563
sI8
g3641
sI16
g3735
sI23
g3813
sI24
g3829
sI57
g4066
sI26
g3847
sI58
g4073
ssI68
(dp4103
I35
g3952
sI5
g3600
sI8
g3642
sI41
g4019
sI60
g4084
sI13
g3706
sI15
g3731
sI19
g3772
sI57
g4067
sI59
g4077
sI28
g3862
ssI69
(dp4104
I66
g4101
sI9
g3663
sI19
g3773
sI30
g3888
sI24
g3830
sI59
g4078
sI60
g4085
sI62
g4092
sI63
g4095
ssI70
(dp4105
I33
g3932
sI111
(dp4106
sI113
(dp4107
sI26
g3848
sI28
g3863
sI29
g3873
ssI71
(dp4108
I79
(dp4109
sI80
(dp4110
sI82
(dp4111
sI87
(dp4112
sI91
(dp4113
sI92
(dp4114
ssI72
(dp4115
I32
g3921
sI96
(dp4116
sI8
g3643
sI9
g3664
sI89
(dp4117
sI93
(dp4118
sI95
(dp4119
ssI73
(dp4120
I96
(dp4121
sI3
g3581
sI80
(dp4122
sI18
g3759
sI23
g3814
sI88
(dp4123
sI89
(dp4124
sI90
(dp4125
sI27
g3856
sI94
(dp4126
sI95
(dp4127
ssI74
(dp4128
I8
g3644
sI9
g3665
sI34
g3943
ssI75
(dp4129
I3
g3582
sI94
(dp4130
sI80
(dp4131
sI19
g3776
sI85
(dp4132
sI88
(dp4133
sI89
(dp4134
sI26
g3849
sI30
g3890
sI95
(dp4135
ssI76
(dp4136
I80
(dp4137
sI89
(dp4138
sI90
(dp4139
sI93
(dp4140
sI38
g4000
ssI77
(dp4141
I0
g3546
sI33
g3934
sI34
g3945
sI8
g3645
sI9
g3666
sI95
(dp4142
ssI78
(dp4143
I0
g3551
sI33
g3935
sI35
g3957
sI8
g3646
sI9
g3669
sI85
(dp4144
sI86
(dp4145
sI88
(dp4146
sI89
(dp4147
ssI79
(dp4148
I71
g4109
sI8
g3647
sI9
g3668
sI81
(dp4149
sI85
(dp4150
sI86
(dp4151
ssI80
(dp4152
I96
(dp4153
sI71
g4110
sI73
g4122
sI75
g4131
sI76
g4137
sI14
g3709
sI89
(dp4154
sI90
(dp4155
sI94
(dp4156
sI95
(dp4157
ssI81
(dp4158
I33
g3936
sI5
g3601
sI38
g4001
sI12
g3695
sI79
g4149
sI82
(dp4159
sI31
g3906
ssI82
(dp4160
I0
g3549
sI96
(dp4161
sI71
g4111
sI11
g3689
sI81
g4159
sI24
g3834
sI95
(dp4162
sI94
(dp4163
sI31
g3913
ssI83
(dp4164
I0
g3552
sI96
(dp4165
sI8
g3648
sI11
g3681
sI12
g3704
sI85
(dp4166
sI86
(dp4167
sI94
(dp4168
sI30
g3894
sI31
g3914
ssI84
(dp4169
I36
g3975
sI6
g3615
sI8
g3649
sI11
g3691
sI14
g3715
sI85
(dp4170
sI30
g3895
sI31
g3915
ssI85
(dp4171
I0
g3557
sI36
g3976
sI75
g4132
sI78
g4144
sI79
g4150
sI83
g4166
sI84
g4170
sI14
g3716
sI86
(dp4172
sI27
g3857
sI30
g3896
ssI86
(dp4173
I36
g3977
sI6
g3616
sI7
g3631
sI78
g4145
sI79
g4151
sI83
g4167
sI85
g4172
sI27
g3858
sI30
g3897
sI31
g3916
ssI87
(dp4174
I34
g3947
sI36
g3978
sI37
g3990
sI6
g3611
sI71
g4112
sI91
(dp4175
sI28
g3868
ssI88
(dp4176
I3
g3588
sI4
g3597
sI39
g4007
sI73
g4123
sI75
g4133
sI78
g4146
sI89
(dp4177
sI90
(dp4178
sI29
g3880
ssI89
(dp4179
I80
g4154
sI39
g4008
sI72
g4117
sI73
g4124
sI10
g3678
sI75
g4134
sI76
g4138
sI78
g4147
sI16
g3737
sI20
g3793
sI88
g4177
sI90
(dp4180
ssI90
(dp4181
I80
g4155
sI8
g3650
sI73
g4125
sI76
g4139
sI15
g3732
sI16
g3742
sI20
g3794
sI88
g4178
sI89
g4180
sI29
g3881
ssI91
(dp4182
I34
g3948
sI36
g3979
sI37
g3992
sI39
g4009
sI71
g4113
sI2
g3576
sI15
g3733
sI19
g3781
sI87
g4175
sI24
g3835
sI92
(dp4183
ssI92
(dp4184
I34
g3949
sI91
g4183
sI37
g3989
sI7
g3621
sI10
g3679
sI39
g4010
sI19
g3782
sI24
g3832
sI71
g4114
sI27
g3859
ssI93
(dp4185
I96
(dp4186
sI36
g3980
sI5
g3606
sI8
g3651
sI76
g4140
sI12
g3701
sI16
g3736
sI72
g4118
sI94
(dp4187
sI30
g3891
ssI94
(dp4188
I96
(dp4189
sI36
g3981
sI8
g3652
sI73
g4126
sI75
g4130
sI80
g4156
sI82
g4163
sI83
g4168
sI24
g3838
sI93
g4187
sI30
g3900
sI95
(dp4190
ssI95
(dp4191
I96
(dp4192
sI36
g3982
sI72
g4119
sI73
g4127
sI75
g4135
sI77
g4142
sI80
g4157
sI8
g3653
sI82
g4162
sI94
g4190
ssI96
(dp4193
I38
g3997
sI8
g3654
sI73
g4121
sI80
g4153
sI72
g4116
sI82
g4161
sI83
g4165
sI93
g4186
sI94
g4189
sI95
g4192
ssI97
(dp4194
I34
g3942
sI108
(dp4195
sI114
(dp4196
sI27
g3854
sI29
g3874
sI30
g3889
ssI98
(dp4197
I34
g3941
sI38
g3998
sI14
g3710
sI111
(dp4198
sI113
(dp4199
sI115
(dp4200
sI116
(dp4201
sI29
g3872
ssI99
(dp4202
I104
(dp4203
sI113
(dp4204
sI114
(dp4205
sI116
(dp4206
sI111
(dp4207
ssI100
(dp4208
I115
(dp4209
sI9
g3662
sI10
g3674
sI35
g3961
sI103
(dp4210
ssI101
(dp4211
I0
g3556
sI33
g3931
sI32
g3920
sI104
(dp4212
sI9
g3672
sI10
g3675
sI114
(dp4213
sI115
(dp4214
ssI102
(dp4215
I105
(dp4216
sI114
(dp4217
sI115
(dp4218
sI116
(dp4219
sI38
g3999
ssI103
(dp4220
I34
g3944
sI115
(dp4221
sI4
g3590
sI37
g3986
sI19
g3774
sI20
g3785
sI100
g4210
sI29
g3876
ssI104
(dp4222
I115
(dp4223
sI99
g4203
sI116
(dp4224
sI101
g4212
sI15
g3721
ssI105
(dp4225
I35
g3955
sI4
g3592
sI102
g4216
sI39
g4005
sI106
(dp4226
sI107
(dp4227
sI19
g3780
sI20
g3786
sI29
g3875
ssI106
(dp4228
I36
g3983
sI8
g3655
sI105
g4226
sI11
g3682
sI108
(dp4229
sI112
(dp4230
sI115
(dp4231
sI4
g3593
ssI107
(dp4232
I116
(dp4233
sI115
(dp4234
sI105
g4227
sI15
g3723
sI112
(dp4235
sI18
g3757
sI19
g3771
sI20
g3787
sI23
g3815
sI25
g3840
ssI108
(dp4236
I97
g4195
sI3
g3583
sI106
g4229
sI12
g3698
sI25
g3841
sI28
g3864
ssI109
(dp4237
I20
g3788
sI4
g3595
ssI110
(dp4238
I2
g3573
sI3
g3584
sI4
g3596
sI37
g3988
sI7
g3624
sI11
g3686
sI15
g3724
sI111
(dp4239
sI28
g3865
ssI111
(dp4240
I98
g4198
sI99
g4207
sI70
g4106
sI39
g4006
sI110
g4239
sI15
g3725
sI113
(dp4241
sI3
g3585
sI20
g3797
sI28
g3866
sI31
g3917
ssI112
(dp4242
I0
g3548
sI8
g3656
sI106
g4230
sI107
g4235
sI15
g3726
sI18
g3762
sI20
g3789
sI23
g3812
sI25
g3842
sI29
g3877
ssI113
(dp4243
I98
g4199
sI99
g4204
sI70
g4107
sI8
g3657
sI11
g3688
sI111
g4241
sI20
g3790
sI28
g3867
sI30
g3893
sI31
g3905
ssI114
(dp4244
I97
g4196
sI99
g4205
sI101
g4213
sI102
g4217
sI14
g3713
sI15
g3728
sI115
(dp4245
sI116
(dp4246
ssI115
(dp4247
I98
g4200
sI107
g4234
sI100
g4209
sI101
g4214
sI102
g4218
sI7
g3620
sI104
g4223
sI106
g4231
sI103
g4221
sI114
g4245
sI116
(dp4248
sI23
g3818
ssI116
(dp4249
I98
g4201
sI99
g4206
sI102
g4219
sI104
g4224
sI107
g4233
sI114
g4246
sI115
g4248
sI23
g3824
sssg857
(dp4250
sg859
g127
sg860
g3537
sba.