(dp1
S'karate_club_graph_hstars'
p2
(lp3
ccopy_reg
_reconstructor
p4
(cnetworkx.classes.graph
Graph
p5
c__builtin__
object
p6
NtRp7
(dp8
S'node'
p9
(dp10
I0
(dp11
sI1
(dp12
sI2
(dp13
sI3
(dp14
sI4
(dp15
sI5
(dp16
sI6
(dp17
sI7
(dp18
sI8
(dp19
sI9
(dp20
sI10
(dp21
sI11
(dp22
sI12
(dp23
sI13
(dp24
sI14
(dp25
sI15
(dp26
sI16
(dp27
sI17
(dp28
sI18
(dp29
sI19
(dp30
sI20
(dp31
sI21
(dp32
sI22
(dp33
sI23
(dp34
sI24
(dp35
sI25
(dp36
sI26
(dp37
sI27
(dp38
sI28
(dp39
sI29
(dp40
sI30
(dp41
sI31
(dp42
sI32
(dp43
sI33
(dp44
ssS'node_dict_factory'
p45
c__builtin__
dict
p46
sS'edge_attr_dict_factory'
p47
g46
sS'edge'
p48
(dp49
I0
(dp50
I1
(dp51
sI2
(dp52
sI3
(dp53
ssI1
(dp54
I0
g51
sI2
(dp55
sI4
(dp56
sI11
(dp57
sI12
(dp58
sI13
(dp59
ssI2
(dp60
I0
g52
sI1
g55
sI5
(dp61
sI6
(dp62
sI7
(dp63
sI8
(dp64
sI9
(dp65
sI10
(dp66
sI12
(dp67
sI14
(dp68
sI15
(dp69
sI16
(dp70
sI18
(dp71
sI19
(dp72
sI20
(dp73
sI21
(dp74
sI23
(dp75
sI24
(dp76
sI25
(dp77
sI27
(dp78
sI28
(dp79
sI30
(dp80
sI31
(dp81
sI32
(dp82
ssI3
(dp83
I0
g53
sI33
(dp84
sI4
(dp85
sI5
(dp86
sI7
(dp87
sI8
(dp88
sI9
(dp89
sI10
(dp90
sI15
(dp91
sI16
(dp92
sI17
(dp93
sI19
(dp94
sI20
(dp95
sI21
(dp96
sI23
(dp97
sI26
(dp98
sI27
(dp99
sI28
(dp100
sI29
(dp101
sI30
(dp102
ssI4
(dp103
I1
g56
sI3
g85
sI5
(dp104
sI6
(dp105
sI9
(dp106
sI17
(dp107
sI22
(dp108
ssI5
(dp109
I2
g61
sI3
g86
sI4
g104
sI6
(dp110
sI8
(dp111
sI9
(dp112
sI15
(dp113
sI26
(dp114
ssI6
(dp115
I2
g62
sI4
g105
sI5
g110
sI7
(dp116
sI8
(dp117
sI10
(dp118
ssI7
(dp119
I2
g63
sI3
g87
sI6
g116
ssI8
(dp120
I2
g64
sI3
g88
sI5
g111
sI6
g117
sI15
(dp121
ssI9
(dp122
I17
(dp123
sI2
g65
sI3
g89
sI4
g106
sI5
g112
ssI10
(dp124
I2
g66
sI3
g90
sI6
g118
ssI11
(dp125
I1
g57
ssI12
(dp126
I1
g58
sI2
g67
ssI13
(dp127
I1
g59
ssI14
(dp128
I2
g68
ssI15
(dp129
I8
g121
sI2
g69
sI3
g91
sI5
g113
ssI16
(dp130
I2
g70
sI3
g92
ssI17
(dp131
I3
g93
sI4
g107
sI9
g123
sI18
(dp132
sI22
(dp133
sI23
(dp134
sI29
(dp135
sI31
(dp136
ssI18
(dp137
I17
g132
sI2
g71
sI20
(dp138
ssI19
(dp139
I2
g72
sI3
g94
ssI20
(dp140
I18
g138
sI3
g95
sI2
g73
ssI21
(dp141
I2
g74
sI3
g96
ssI22
(dp142
I24
(dp143
sI17
g133
sI27
(dp144
sI4
g108
sI23
(dp145
ssI23
(dp146
I24
(dp147
sI17
g134
sI2
g75
sI3
g97
sI22
g145
ssI24
(dp148
I33
(dp149
sI2
g76
sI22
g143
sI23
g147
sI27
(dp150
sI28
(dp151
ssI25
(dp152
I32
(dp153
sI2
g77
ssI26
(dp154
I3
g98
sI5
g114
ssI27
(dp155
I24
g150
sI2
g78
sI3
g99
sI28
(dp156
sI22
g144
ssI28
(dp157
I24
g151
sI27
g156
sI2
g79
sI3
g100
ssI29
(dp158
I17
g135
sI3
g101
ssI30
(dp159
I2
g80
sI3
g102
ssI31
(dp160
I17
g136
sI2
g81
ssI32
(dp161
I25
g153
sI2
g82
ssI33
(dp162
I24
g149
sI3
g84
sssS'graph'
p163
(dp164
sS'adjlist_dict_factory'
p165
g46
sS'adj'
p166
g49
sbag4
(g5
g6
NtRp167
(dp168
g9
(dp169
I0
(dp170
sI1
(dp171
sI2
(dp172
sI3
(dp173
sI4
(dp174
sI5
(dp175
sI6
(dp176
sI7
(dp177
sI8
(dp178
sI9
(dp179
sI10
(dp180
sI11
(dp181
sI12
(dp182
sI13
(dp183
sI14
(dp184
sI15
(dp185
sI16
(dp186
sI17
(dp187
sI18
(dp188
sI19
(dp189
sI20
(dp190
sI21
(dp191
sI22
(dp192
sI23
(dp193
sI24
(dp194
sI25
(dp195
sI26
(dp196
sI27
(dp197
sI28
(dp198
sI29
(dp199
sI30
(dp200
sI31
(dp201
sI32
(dp202
sI33
(dp203
ssg45
g46
sg47
g46
sg48
(dp204
I0
(dp205
I1
(dp206
sI2
(dp207
sI3
(dp208
ssI1
(dp209
I0
g206
sI32
(dp210
sI2
(dp211
sI4
(dp212
sI5
(dp213
sI6
(dp214
sI7
(dp215
sI8
(dp216
sI10
(dp217
sI12
(dp218
sI13
(dp219
sI14
(dp220
sI15
(dp221
sI16
(dp222
sI17
(dp223
sI21
(dp224
sI22
(dp225
sI25
(dp226
sI26
(dp227
sI27
(dp228
sI29
(dp229
ssI2
(dp230
I0
g207
sI1
g211
sI4
(dp231
sI6
(dp232
sI7
(dp233
sI9
(dp234
sI10
(dp235
sI11
(dp236
sI12
(dp237
sI13
(dp238
sI14
(dp239
sI15
(dp240
sI16
(dp241
sI17
(dp242
sI18
(dp243
sI19
(dp244
sI20
(dp245
sI24
(dp246
sI27
(dp247
sI28
(dp248
sI32
(dp249
sI33
(dp250
ssI3
(dp251
I0
g208
sI4
(dp252
sI5
(dp253
sI14
(dp254
sI17
(dp255
sI18
(dp256
sI19
(dp257
ssI4
(dp258
I1
g212
sI2
g231
sI3
g252
sI5
(dp259
sI11
(dp260
sI14
(dp261
sI16
(dp262
sI17
(dp263
ssI5
(dp264
I11
(dp265
sI1
g213
sI3
g253
sI4
g259
ssI6
(dp266
I1
g214
sI2
g232
ssI7
(dp267
I8
(dp268
sI1
g215
sI2
g233
sI9
(dp269
ssI8
(dp270
I1
g216
sI10
(dp271
sI7
g268
ssI9
(dp272
I2
g234
sI7
g269
ssI10
(dp273
I8
g271
sI1
g217
sI2
g235
ssI11
(dp274
I2
g236
sI4
g260
sI5
g265
sI16
(dp275
sI21
(dp276
sI23
(dp277
ssI12
(dp278
I1
g218
sI2
g237
ssI13
(dp279
I1
g219
sI2
g238
ssI14
(dp280
I1
g220
sI2
g239
sI3
g254
sI4
g261
sI15
(dp281
ssI15
(dp282
I1
g221
sI2
g240
sI14
g281
ssI16
(dp283
I1
g222
sI2
g241
sI11
g275
sI4
g262
sI20
(dp284
ssI17
(dp285
I1
g223
sI2
g242
sI3
g255
sI4
g263
ssI18
(dp286
I19
(dp287
sI2
g243
sI3
g256
ssI19
(dp288
I18
g287
sI3
g257
sI2
g244
ssI20
(dp289
I2
g245
sI16
g284
sI21
(dp290
sI23
(dp291
sI25
(dp292
sI26
(dp293
sI27
(dp294
ssI21
(dp295
I1
g224
sI11
g276
sI20
g290
sI22
(dp296
ssI22
(dp297
I1
g225
sI21
g296
ssI23
(dp298
I24
(dp299
sI11
g277
sI20
g291
ssI24
(dp300
I32
(dp301
sI33
(dp302
sI2
g246
sI23
g299
sI27
(dp303
sI30
(dp304
sI31
(dp305
ssI25
(dp306
I1
g226
sI20
g292
ssI26
(dp307
I1
g227
sI20
g293
ssI27
(dp308
I24
g303
sI1
g228
sI2
g247
sI20
g294
sI28
(dp309
ssI28
(dp310
I32
(dp311
sI2
g248
sI27
g309
sI29
(dp312
sI30
(dp313
sI31
(dp314
ssI29
(dp315
I1
g229
sI28
g312
ssI30
(dp316
I24
g304
sI28
g313
ssI31
(dp317
I24
g305
sI28
g314
ssI32
(dp318
I24
g301
sI1
g210
sI2
g249
sI28
g311
ssI33
(dp319
I24
g302
sI2
g250
sssg163
(dp320
sg165
g46
sg166
g204
sbag4
(g5
g6
NtRp321
(dp322
g9
(dp323
I0
(dp324
sI1
(dp325
sI2
(dp326
sI3
(dp327
sI4
(dp328
sI5
(dp329
sI6
(dp330
sI7
(dp331
sI8
(dp332
sI9
(dp333
sI10
(dp334
sI11
(dp335
sI12
(dp336
sI13
(dp337
sI14
(dp338
sI15
(dp339
sI16
(dp340
sI17
(dp341
sI18
(dp342
sI19
(dp343
sI20
(dp344
sI21
(dp345
sI22
(dp346
sI23
(dp347
sI24
(dp348
sI25
(dp349
sI26
(dp350
sI27
(dp351
sI28
(dp352
sI29
(dp353
sI30
(dp354
sI31
(dp355
sI32
(dp356
sI33
(dp357
ssg45
g46
sg47
g46
sg48
(dp358
I0
(dp359
I1
(dp360
sI2
(dp361
sI3
(dp362
ssI1
(dp363
I0
g360
sI2
(dp364
sI4
(dp365
sI5
(dp366
sI6
(dp367
sI7
(dp368
sI8
(dp369
sI9
(dp370
sI12
(dp371
sI13
(dp372
sI14
(dp373
sI15
(dp374
sI16
(dp375
sI18
(dp376
sI19
(dp377
sI21
(dp378
sI22
(dp379
sI23
(dp380
sI24
(dp381
sI26
(dp382
sI27
(dp383
sI28
(dp384
sI31
(dp385
ssI2
(dp386
I0
g361
sI1
g364
sI4
(dp387
sI6
(dp388
sI7
(dp389
sI9
(dp390
sI10
(dp391
sI11
(dp392
sI16
(dp393
sI25
(dp394
sI26
(dp395
sI29
(dp396
ssI3
(dp397
I0
g362
sI32
(dp398
sI4
(dp399
sI5
(dp400
sI33
(dp401
sI12
(dp402
sI14
(dp403
sI15
(dp404
sI16
(dp405
sI17
(dp406
sI19
(dp407
sI20
(dp408
sI21
(dp409
sI27
(dp410
sI28
(dp411
sI30
(dp412
sI31
(dp413
ssI4
(dp414
I1
g365
sI2
g387
sI3
g399
sI5
(dp415
sI9
(dp416
sI10
(dp417
sI11
(dp418
ssI5
(dp419
I1
g366
sI3
g400
sI4
g415
sI6
(dp420
sI9
(dp421
ssI6
(dp422
I8
(dp423
sI1
g367
sI2
g388
sI5
g420
ssI7
(dp424
I1
g368
sI2
g389
ssI8
(dp425
I1
g369
sI6
g423
ssI9
(dp426
I1
g370
sI2
g390
sI4
g416
sI5
g421
ssI10
(dp427
I2
g391
sI4
g417
ssI11
(dp428
I2
g392
sI4
g418
sI12
(dp429
sI13
(dp430
sI16
(dp431
sI28
(dp432
sI30
(dp433
ssI12
(dp434
I32
(dp435
sI1
g371
sI3
g402
sI33
(dp436
sI11
g429
sI13
(dp437
sI17
(dp438
sI20
(dp439
sI27
(dp440
sI31
(dp441
ssI13
(dp442
I1
g372
sI11
g430
sI12
g437
sI14
(dp443
sI17
(dp444
ssI14
(dp445
I1
g373
sI18
(dp446
sI3
g403
sI13
g443
ssI15
(dp447
I1
g374
sI3
g404
ssI16
(dp448
I11
g431
sI1
g375
sI2
g393
sI3
g405
ssI17
(dp449
I27
(dp450
sI3
g406
sI12
g438
sI13
g444
ssI18
(dp451
I1
g376
sI14
g446
ssI19
(dp452
I1
g377
sI3
g407
ssI20
(dp453
I28
(dp454
sI3
g408
sI12
g439
ssI21
(dp455
I1
g378
sI3
g409
ssI22
(dp456
I24
(dp457
sI1
g379
ssI23
(dp458
I1
g380
ssI24
(dp459
I1
g381
sI22
g457
ssI25
(dp460
I2
g394
sI29
(dp461
ssI26
(dp462
I1
g382
sI2
g395
ssI27
(dp463
I31
(dp464
sI17
g450
sI3
g410
sI12
g440
sI1
g383
ssI28
(dp465
I11
g432
sI1
g384
sI3
g411
sI20
g454
ssI29
(dp466
I25
g461
sI2
g396
ssI30
(dp467
I3
g412
sI11
g433
ssI31
(dp468
I27
g464
sI1
g385
sI3
g413
sI12
g441
ssI32
(dp469
I33
(dp470
sI3
g398
sI12
g435
ssI33
(dp471
I32
g470
sI3
g401
sI12
g436
sssg163
(dp472
sg165
g46
sg166
g358
sbag4
(g5
g6
NtRp473
(dp474
g9
(dp475
I0
(dp476
sI1
(dp477
sI2
(dp478
sI3
(dp479
sI4
(dp480
sI5
(dp481
sI6
(dp482
sI7
(dp483
sI8
(dp484
sI9
(dp485
sI10
(dp486
sI11
(dp487
sI12
(dp488
sI13
(dp489
sI14
(dp490
sI15
(dp491
sI16
(dp492
sI17
(dp493
sI18
(dp494
sI19
(dp495
sI20
(dp496
sI21
(dp497
sI22
(dp498
sI23
(dp499
sI24
(dp500
sI25
(dp501
sI26
(dp502
sI27
(dp503
sI28
(dp504
sI29
(dp505
sI30
(dp506
sI31
(dp507
sI32
(dp508
sI33
(dp509
ssg45
g46
sg47
g46
sg48
(dp510
I0
(dp511
I1
(dp512
sI2
(dp513
sI3
(dp514
ssI1
(dp515
I0
g512
sI2
(dp516
sI4
(dp517
sI5
(dp518
sI6
(dp519
sI8
(dp520
sI10
(dp521
sI11
(dp522
sI12
(dp523
sI13
(dp524
sI14
(dp525
sI15
(dp526
sI16
(dp527
sI17
(dp528
sI18
(dp529
sI19
(dp530
sI20
(dp531
sI21
(dp532
sI23
(dp533
sI24
(dp534
sI25
(dp535
sI27
(dp536
sI28
(dp537
sI29
(dp538
sI30
(dp539
sI31
(dp540
sI32
(dp541
ssI2
(dp542
I0
g513
sI1
g516
sI4
(dp543
sI6
(dp544
sI7
(dp545
sI8
(dp546
sI9
(dp547
sI11
(dp548
sI12
(dp549
sI14
(dp550
sI17
(dp551
sI18
(dp552
sI19
(dp553
sI20
(dp554
sI21
(dp555
sI22
(dp556
sI23
(dp557
sI26
(dp558
sI27
(dp559
sI29
(dp560
sI30
(dp561
sI32
(dp562
sI33
(dp563
ssI3
(dp564
I0
g514
sI4
(dp565
sI5
(dp566
sI10
(dp567
sI13
(dp568
sI15
(dp569
sI16
(dp570
sI21
(dp571
sI22
(dp572
ssI4
(dp573
I1
g517
sI2
g543
sI3
g565
sI5
(dp574
sI7
(dp575
sI9
(dp576
ssI5
(dp577
I1
g518
sI3
g566
sI4
g574
sI6
(dp578
sI7
(dp579
sI14
(dp580
sI23
(dp581
sI28
(dp582
ssI6
(dp583
I1
g519
sI2
g544
sI5
g578
sI14
(dp584
ssI7
(dp585
I8
(dp586
sI2
g545
sI4
g575
sI5
g579
ssI8
(dp587
I1
g520
sI2
g546
sI7
g586
ssI9
(dp588
I2
g547
sI4
g576
sI10
(dp589
sI21
(dp590
ssI10
(dp591
I9
g589
sI3
g567
sI1
g521
ssI11
(dp592
I1
g522
sI2
g548
ssI12
(dp593
I1
g523
sI2
g549
ssI13
(dp594
I1
g524
sI3
g568
ssI14
(dp595
I1
g525
sI2
g550
sI5
g580
sI6
g584
sI33
(dp596
sI23
(dp597
sI24
(dp598
sI26
(dp599
sI29
(dp600
sI30
(dp601
ssI15
(dp602
I1
g526
sI3
g569
ssI16
(dp603
I1
g527
sI3
g570
ssI17
(dp604
I1
g528
sI2
g551
ssI18
(dp605
I1
g529
sI2
g552
sI19
(dp606
ssI19
(dp607
I1
g530
sI2
g553
sI18
g606
ssI20
(dp608
I1
g531
sI2
g554
ssI21
(dp609
I9
g590
sI2
g555
sI3
g571
sI1
g532
ssI22
(dp610
I2
g556
sI3
g572
ssI23
(dp611
I24
(dp612
sI1
g533
sI2
g557
sI5
g581
sI14
g597
ssI24
(dp613
I1
g534
sI26
(dp614
sI14
g598
sI23
g612
ssI25
(dp615
I1
g535
ssI26
(dp616
I24
g614
sI2
g558
sI27
(dp617
sI14
g599
ssI27
(dp618
I1
g536
sI2
g559
sI26
g617
sI31
(dp619
ssI28
(dp620
I1
g537
sI5
g582
ssI29
(dp621
I1
g538
sI2
g560
sI30
(dp622
sI14
g600
ssI30
(dp623
I1
g539
sI2
g561
sI29
g622
sI14
g601
ssI31
(dp624
I1
g540
sI27
g619
ssI32
(dp625
I1
g541
sI2
g562
ssI33
(dp626
I2
g563
sI14
g596
sssg163
(dp627
sg165
g46
sg166
g510
sbag4
(g5
g6
NtRp628
(dp629
g9
(dp630
I0
(dp631
sI1
(dp632
sI2
(dp633
sI3
(dp634
sI4
(dp635
sI5
(dp636
sI6
(dp637
sI7
(dp638
sI8
(dp639
sI9
(dp640
sI10
(dp641
sI11
(dp642
sI12
(dp643
sI13
(dp644
sI14
(dp645
sI15
(dp646
sI16
(dp647
sI17
(dp648
sI18
(dp649
sI19
(dp650
sI20
(dp651
sI21
(dp652
sI22
(dp653
sI23
(dp654
sI24
(dp655
sI25
(dp656
sI26
(dp657
sI27
(dp658
sI28
(dp659
sI29
(dp660
sI30
(dp661
sI31
(dp662
sI32
(dp663
sI33
(dp664
ssg45
g46
sg47
g46
sg48
(dp665
I0
(dp666
I1
(dp667
sI2
(dp668
sI3
(dp669
ssI1
(dp670
I0
g667
sI2
(dp671
sI4
(dp672
sI6
(dp673
sI8
(dp674
sI9
(dp675
sI10
(dp676
sI11
(dp677
sI13
(dp678
sI16
(dp679
sI17
(dp680
sI19
(dp681
sI22
(dp682
sI27
(dp683
sI30
(dp684
sI31
(dp685
ssI2
(dp686
I0
g668
sI1
g671
sI5
(dp687
sI7
(dp688
sI8
(dp689
sI12
(dp690
sI16
(dp691
sI17
(dp692
sI18
(dp693
sI22
(dp694
sI33
(dp695
sI27
(dp696
sI29
(dp697
sI30
(dp698
sI31
(dp699
ssI3
(dp700
I0
g669
sI4
(dp701
sI5
(dp702
ssI4
(dp703
I1
g672
sI3
g701
sI6
(dp704
sI7
(dp705
ssI5
(dp706
I2
g687
sI3
g702
ssI6
(dp707
I8
(dp708
sI1
g673
sI19
(dp709
sI4
g704
sI9
(dp710
ssI7
(dp711
I2
g688
sI4
g705
ssI8
(dp712
I1
g674
sI2
g689
sI6
g708
sI9
(dp713
sI10
(dp714
sI14
(dp715
sI16
(dp716
sI22
(dp717
sI24
(dp718
ssI9
(dp719
I8
g713
sI1
g675
sI10
(dp720
sI12
(dp721
sI6
g710
ssI10
(dp722
I8
g714
sI9
g720
sI16
(dp723
sI1
g676
ssI11
(dp724
I1
g677
ssI12
(dp725
I2
g690
sI9
g721
sI13
(dp726
sI15
(dp727
sI20
(dp728
sI23
(dp729
sI25
(dp730
sI26
(dp731
ssI13
(dp732
I32
(dp733
sI1
g678
sI12
g726
sI14
(dp734
sI15
(dp735
sI20
(dp736
sI23
(dp737
sI25
(dp738
sI26
(dp739
ssI14
(dp740
I8
g715
sI21
(dp741
sI13
g734
sI15
(dp742
ssI15
(dp743
I23
(dp744
sI12
g727
sI13
g735
sI14
g742
sI21
(dp745
ssI16
(dp746
I8
g716
sI1
g679
sI2
g691
sI10
g723
sI22
(dp747
ssI17
(dp748
I1
g680
sI2
g692
ssI18
(dp749
I2
g693
ssI19
(dp750
I1
g681
sI6
g709
ssI20
(dp751
I12
g728
sI13
g736
ssI21
(dp752
I32
(dp753
sI25
(dp754
sI23
(dp755
sI14
g741
sI15
g745
ssI22
(dp756
I1
g682
sI2
g694
sI8
g717
sI16
g747
sI24
(dp757
sI28
(dp758
ssI23
(dp759
I12
g729
sI25
(dp760
sI21
g755
sI13
g737
sI15
g744
ssI24
(dp761
I33
(dp762
sI8
g718
sI22
g757
sI28
(dp763
sI29
(dp764
sI31
(dp765
ssI25
(dp766
I23
g760
sI12
g730
sI13
g738
sI21
g754
ssI26
(dp767
I12
g731
sI13
g739
ssI27
(dp768
I1
g683
sI2
g696
ssI28
(dp769
I24
g763
sI29
(dp770
sI22
g758
ssI29
(dp771
I24
g764
sI2
g697
sI28
g770
sI30
(dp772
sI31
(dp773
ssI30
(dp774
I1
g684
sI2
g698
sI29
g772
ssI31
(dp775
I24
g765
sI1
g685
sI2
g699
sI29
g773
ssI32
(dp776
I21
g753
sI13
g733
ssI33
(dp777
I24
g762
sI2
g695
sssg163
(dp778
sg165
g46
sg166
g665
sbag4
(g5
g6
NtRp779
(dp780
g9
(dp781
I0
(dp782
sI1
(dp783
sI2
(dp784
sI3
(dp785
sI4
(dp786
sI5
(dp787
sI6
(dp788
sI7
(dp789
sI8
(dp790
sI9
(dp791
sI10
(dp792
sI11
(dp793
sI12
(dp794
sI13
(dp795
sI14
(dp796
sI15
(dp797
sI16
(dp798
sI17
(dp799
sI18
(dp800
sI19
(dp801
sI20
(dp802
sI21
(dp803
sI22
(dp804
sI23
(dp805
sI24
(dp806
sI25
(dp807
sI26
(dp808
sI27
(dp809
sI28
(dp810
sI29
(dp811
sI30
(dp812
sI31
(dp813
sI32
(dp814
sI33
(dp815
ssg45
g46
sg47
g46
sg48
(dp816
I0
(dp817
I1
(dp818
sI2
(dp819
sI3
(dp820
ssI1
(dp821
I0
g818
sI2
(dp822
sI4
(dp823
sI6
(dp824
sI7
(dp825
sI11
(dp826
sI12
(dp827
sI14
(dp828
sI15
(dp829
sI16
(dp830
sI17
(dp831
sI18
(dp832
sI19
(dp833
sI20
(dp834
sI21
(dp835
sI22
(dp836
sI23
(dp837
sI24
(dp838
sI25
(dp839
sI29
(dp840
sI31
(dp841
sI32
(dp842
sI33
(dp843
ssI2
(dp844
I0
g819
sI1
g822
sI5
(dp845
sI6
(dp846
sI7
(dp847
sI9
(dp848
sI10
(dp849
sI11
(dp850
sI13
(dp851
sI14
(dp852
sI15
(dp853
sI16
(dp854
sI17
(dp855
sI18
(dp856
sI19
(dp857
sI21
(dp858
sI22
(dp859
sI26
(dp860
sI27
(dp861
sI28
(dp862
sI29
(dp863
sI30
(dp864
sI31
(dp865
ssI3
(dp866
I0
g820
sI4
(dp867
sI5
(dp868
ssI4
(dp869
I1
g823
sI3
g867
sI5
(dp870
ssI5
(dp871
I2
g845
sI3
g868
sI4
g870
ssI6
(dp872
I8
(dp873
sI1
g824
sI2
g846
sI7
(dp874
ssI7
(dp875
I1
g825
sI2
g847
sI6
g874
sI8
(dp876
sI18
(dp877
sI19
(dp878
sI20
(dp879
sI23
(dp880
sI24
(dp881
sI25
(dp882
ssI8
(dp883
I9
(dp884
sI6
g873
sI7
g876
ssI9
(dp885
I8
g884
sI2
g848
ssI10
(dp886
I2
g849
sI26
(dp887
ssI11
(dp888
I1
g826
sI2
g850
sI12
(dp889
sI13
(dp890
sI27
(dp891
sI28
(dp892
ssI12
(dp893
I1
g827
sI11
g889
sI13
(dp894
ssI13
(dp895
I2
g851
sI11
g890
sI12
g894
ssI14
(dp896
I1
g828
sI2
g852
ssI15
(dp897
I1
g829
sI2
g853
ssI16
(dp898
I1
g830
sI2
g854
ssI17
(dp899
I1
g831
sI2
g855
ssI18
(dp900
I1
g832
sI2
g856
sI19
(dp901
sI7
g877
ssI19
(dp902
I1
g833
sI2
g857
sI18
g901
sI7
g878
ssI20
(dp903
I1
g834
sI22
(dp904
sI7
g879
ssI21
(dp905
I1
g835
sI2
g858
ssI22
(dp906
I1
g836
sI2
g859
sI20
g904
ssI23
(dp907
I1
g837
sI7
g880
ssI24
(dp908
I1
g838
sI7
g881
ssI25
(dp909
I1
g839
sI7
g882
ssI26
(dp910
I10
g887
sI2
g860
ssI27
(dp911
I2
g861
sI11
g891
ssI28
(dp912
I2
g862
sI11
g892
ssI29
(dp913
I1
g840
sI2
g863
ssI30
(dp914
I2
g864
ssI31
(dp915
I1
g841
sI2
g865
ssI32
(dp916
I1
g842
sI33
(dp917
ssI33
(dp918
I32
g917
sI1
g843
sssg163
(dp919
sg165
g46
sg166
g816
sbag4
(g5
g6
NtRp920
(dp921
g9
(dp922
I0
(dp923
sI1
(dp924
sI2
(dp925
sI3
(dp926
sI4
(dp927
sI5
(dp928
sI6
(dp929
sI7
(dp930
sI8
(dp931
sI9
(dp932
sI10
(dp933
sI11
(dp934
sI12
(dp935
sI13
(dp936
sI14
(dp937
sI15
(dp938
sI16
(dp939
sI17
(dp940
sI18
(dp941
sI19
(dp942
sI20
(dp943
sI21
(dp944
sI22
(dp945
sI23
(dp946
sI24
(dp947
sI25
(dp948
sI26
(dp949
sI27
(dp950
sI28
(dp951
sI29
(dp952
sI30
(dp953
sI31
(dp954
sI32
(dp955
sI33
(dp956
ssg45
g46
sg47
g46
sg48
(dp957
I0
(dp958
I1
(dp959
sI2
(dp960
sI3
(dp961
ssI1
(dp962
I0
g959
sI2
(dp963
sI4
(dp964
sI5
(dp965
sI6
(dp966
sI7
(dp967
sI8
(dp968
sI9
(dp969
sI10
(dp970
sI11
(dp971
sI13
(dp972
sI14
(dp973
sI15
(dp974
sI17
(dp975
sI20
(dp976
sI21
(dp977
sI24
(dp978
sI25
(dp979
sI27
(dp980
sI28
(dp981
sI29
(dp982
sI32
(dp983
ssI2
(dp984
I0
g960
sI1
g963
sI4
(dp985
sI33
(dp986
sI6
(dp987
sI32
(dp988
sI11
(dp989
sI13
(dp990
sI14
(dp991
sI16
(dp992
sI17
(dp993
sI18
(dp994
sI19
(dp995
sI24
(dp996
sI26
(dp997
sI29
(dp998
sI30
(dp999
ssI3
(dp1000
I0
g961
sI12
(dp1001
sI4
(dp1002
sI5
(dp1003
ssI4
(dp1004
I1
g964
sI2
g985
sI3
g1002
sI5
(dp1005
sI11
(dp1006
sI12
(dp1007
sI20
(dp1008
sI21
(dp1009
sI24
(dp1010
ssI5
(dp1011
I1
g965
sI3
g1003
sI4
g1005
sI6
(dp1012
sI7
(dp1013
sI11
(dp1014
ssI6
(dp1015
I1
g966
sI2
g987
sI5
g1012
sI7
(dp1016
sI8
(dp1017
sI13
(dp1018
sI14
(dp1019
sI23
(dp1020
ssI7
(dp1021
I1
g967
sI5
g1013
sI6
g1016
sI8
(dp1022
sI13
(dp1023
sI22
(dp1024
ssI8
(dp1025
I1
g968
sI14
(dp1026
sI6
g1017
sI7
g1022
ssI9
(dp1027
I1
g969
sI15
(dp1028
ssI10
(dp1029
I1
g970
ssI11
(dp1030
I1
g971
sI2
g989
sI4
g1006
sI5
g1014
ssI12
(dp1031
I19
(dp1032
sI3
g1001
sI4
g1007
ssI13
(dp1033
I1
g972
sI2
g990
sI6
g1018
sI7
g1023
sI22
(dp1034
sI27
(dp1035
sI31
(dp1036
ssI14
(dp1037
I1
g973
sI2
g991
sI6
g1019
sI8
g1026
sI23
(dp1038
sI29
(dp1039
sI30
(dp1040
ssI15
(dp1041
I9
g1028
sI1
g974
ssI16
(dp1042
I2
g992
sI18
(dp1043
ssI17
(dp1044
I1
g975
sI2
g993
ssI18
(dp1045
I16
g1043
sI2
g994
ssI19
(dp1046
I2
g995
sI12
g1032
ssI20
(dp1047
I1
g976
sI4
g1008
ssI21
(dp1048
I1
g977
sI4
g1009
ssI22
(dp1049
I26
(dp1050
sI13
g1034
sI7
g1024
ssI23
(dp1051
I14
g1038
sI6
g1020
sI29
(dp1052
ssI24
(dp1053
I1
g978
sI2
g996
sI4
g1010
sI25
(dp1054
ssI25
(dp1055
I24
g1054
sI1
g979
ssI26
(dp1056
I32
(dp1057
sI33
(dp1058
sI2
g997
sI22
g1050
sI27
(dp1059
sI31
(dp1060
ssI27
(dp1061
I1
g980
sI26
g1059
sI28
(dp1062
sI13
g1035
ssI28
(dp1063
I1
g981
sI27
g1062
ssI29
(dp1064
I1
g982
sI2
g998
sI14
g1039
sI23
g1052
ssI30
(dp1065
I2
g999
sI14
g1040
ssI31
(dp1066
I32
(dp1067
sI26
g1060
sI13
g1036
ssI32
(dp1068
I1
g983
sI2
g988
sI26
g1057
sI31
g1067
ssI33
(dp1069
I26
g1058
sI2
g986
sssg163
(dp1070
sg165
g46
sg166
g957
sbag4
(g5
g6
NtRp1071
(dp1072
g9
(dp1073
I0
(dp1074
sI1
(dp1075
sI2
(dp1076
sI3
(dp1077
sI4
(dp1078
sI5
(dp1079
sI6
(dp1080
sI7
(dp1081
sI8
(dp1082
sI9
(dp1083
sI10
(dp1084
sI11
(dp1085
sI12
(dp1086
sI13
(dp1087
sI14
(dp1088
sI15
(dp1089
sI16
(dp1090
sI17
(dp1091
sI18
(dp1092
sI19
(dp1093
sI20
(dp1094
sI21
(dp1095
sI22
(dp1096
sI23
(dp1097
sI24
(dp1098
sI25
(dp1099
sI26
(dp1100
sI27
(dp1101
sI28
(dp1102
sI29
(dp1103
sI30
(dp1104
sI31
(dp1105
sI32
(dp1106
sI33
(dp1107
ssg45
g46
sg47
g46
sg48
(dp1108
I0
(dp1109
I1
(dp1110
sI2
(dp1111
sI3
(dp1112
ssI1
(dp1113
I0
g1110
sI2
(dp1114
sI4
(dp1115
sI5
(dp1116
sI6
(dp1117
sI7
(dp1118
sI8
(dp1119
sI9
(dp1120
sI11
(dp1121
sI12
(dp1122
sI13
(dp1123
sI15
(dp1124
sI16
(dp1125
sI20
(dp1126
sI22
(dp1127
sI23
(dp1128
sI31
(dp1129
ssI2
(dp1130
I0
g1111
sI1
g1114
sI4
(dp1131
sI33
(dp1132
sI8
(dp1133
sI10
(dp1134
sI12
(dp1135
sI13
(dp1136
sI14
(dp1137
sI15
(dp1138
sI17
(dp1139
sI20
(dp1140
sI22
(dp1141
sI23
(dp1142
sI31
(dp1143
ssI3
(dp1144
I0
g1112
sI9
(dp1145
sI4
(dp1146
sI5
(dp1147
ssI4
(dp1148
I1
g1115
sI2
g1131
sI3
g1146
sI5
(dp1149
sI6
(dp1150
sI12
(dp1151
sI13
(dp1152
ssI5
(dp1153
I1
g1116
sI3
g1147
sI4
g1149
sI6
(dp1154
ssI6
(dp1155
I1
g1117
sI4
g1150
sI5
g1154
sI12
(dp1156
ssI7
(dp1157
I1
g1118
sI11
(dp1158
ssI8
(dp1159
I1
g1119
sI2
g1133
ssI9
(dp1160
I1
g1120
sI3
g1145
ssI10
(dp1161
I2
g1134
ssI11
(dp1162
I1
g1121
sI7
g1158
ssI12
(dp1163
I1
g1122
sI2
g1135
sI4
g1151
sI6
g1156
sI13
(dp1164
sI14
(dp1165
sI16
(dp1166
sI18
(dp1167
sI24
(dp1168
ssI13
(dp1169
I12
g1164
sI2
g1136
sI4
g1152
sI14
(dp1170
sI1
g1123
ssI14
(dp1171
I33
(dp1172
sI2
g1137
sI12
g1165
sI13
g1170
sI15
(dp1173
sI31
(dp1174
ssI15
(dp1175
I1
g1124
sI2
g1138
sI14
g1173
sI31
(dp1176
ssI16
(dp1177
I32
(dp1178
sI1
g1125
sI12
g1166
sI17
(dp1179
sI19
(dp1180
sI21
(dp1181
sI24
(dp1182
sI25
(dp1183
sI28
(dp1184
sI29
(dp1185
sI30
(dp1186
ssI17
(dp1187
I32
(dp1188
sI2
g1139
sI16
g1179
sI18
(dp1189
sI25
(dp1190
sI26
(dp1191
sI27
(dp1192
sI28
(dp1193
sI29
(dp1194
sI30
(dp1195
ssI18
(dp1196
I17
g1189
sI26
(dp1197
sI19
(dp1198
sI12
g1167
ssI19
(dp1199
I16
g1180
sI18
g1198
sI27
(dp1200
sI21
(dp1201
ssI20
(dp1202
I1
g1126
sI2
g1140
ssI21
(dp1203
I16
g1181
sI19
g1201
ssI22
(dp1204
I1
g1127
sI2
g1141
ssI23
(dp1205
I1
g1128
sI2
g1142
ssI24
(dp1206
I16
g1182
sI12
g1168
ssI25
(dp1207
I16
g1183
sI17
g1190
ssI26
(dp1208
I17
g1191
sI18
g1197
ssI27
(dp1209
I17
g1192
sI19
g1200
ssI28
(dp1210
I16
g1184
sI17
g1193
ssI29
(dp1211
I16
g1185
sI17
g1194
ssI30
(dp1212
I16
g1186
sI17
g1195
ssI31
(dp1213
I1
g1129
sI2
g1143
sI14
g1174
sI15
g1176
ssI32
(dp1214
I16
g1178
sI17
g1188
ssI33
(dp1215
I2
g1132
sI14
g1172
sssg163
(dp1216
sg165
g46
sg166
g1108
sbag4
(g5
g6
NtRp1217
(dp1218
g9
(dp1219
I0
(dp1220
sI1
(dp1221
sI2
(dp1222
sI3
(dp1223
sI4
(dp1224
sI5
(dp1225
sI6
(dp1226
sI7
(dp1227
sI8
(dp1228
sI9
(dp1229
sI10
(dp1230
sI11
(dp1231
sI12
(dp1232
sI13
(dp1233
sI14
(dp1234
sI15
(dp1235
sI16
(dp1236
sI17
(dp1237
sI18
(dp1238
sI19
(dp1239
sI20
(dp1240
sI21
(dp1241
sI22
(dp1242
sI23
(dp1243
sI24
(dp1244
sI25
(dp1245
sI26
(dp1246
sI27
(dp1247
sI28
(dp1248
sI29
(dp1249
sI30
(dp1250
sI31
(dp1251
sI32
(dp1252
sI33
(dp1253
ssg45
g46
sg47
g46
sg48
(dp1254
I0
(dp1255
I1
(dp1256
sI2
(dp1257
sI3
(dp1258
ssI1
(dp1259
I0
g1256
sI2
(dp1260
sI4
(dp1261
sI5
(dp1262
sI6
(dp1263
sI7
(dp1264
sI9
(dp1265
sI12
(dp1266
sI13
(dp1267
sI14
(dp1268
sI18
(dp1269
sI20
(dp1270
sI21
(dp1271
sI22
(dp1272
sI23
(dp1273
sI24
(dp1274
ssI2
(dp1275
I0
g1257
sI1
g1260
sI4
(dp1276
sI6
(dp1277
sI7
(dp1278
sI8
(dp1279
sI14
(dp1280
sI18
(dp1281
sI19
(dp1282
sI20
(dp1283
sI21
(dp1284
sI22
(dp1285
sI24
(dp1286
sI25
(dp1287
sI26
(dp1288
ssI3
(dp1289
I0
g1258
sI12
(dp1290
sI19
(dp1291
sI4
(dp1292
sI5
(dp1293
ssI4
(dp1294
I1
g1261
sI2
g1276
sI3
g1292
sI5
(dp1295
sI10
(dp1296
sI13
(dp1297
sI20
(dp1298
ssI5
(dp1299
I8
(dp1300
sI1
g1262
sI3
g1293
sI4
g1295
ssI6
(dp1301
I1
g1263
sI2
g1277
ssI7
(dp1302
I1
g1264
sI2
g1278
ssI8
(dp1303
I32
(dp1304
sI2
g1279
sI5
g1300
sI9
(dp1305
sI11
(dp1306
sI15
(dp1307
sI16
(dp1308
sI17
(dp1309
sI27
(dp1310
sI28
(dp1311
sI29
(dp1312
sI30
(dp1313
sI31
(dp1314
ssI9
(dp1315
I1
g1265
sI33
(dp1316
sI8
g1305
sI10
(dp1317
sI11
(dp1318
sI15
(dp1319
sI16
(dp1320
sI17
(dp1321
sI27
(dp1322
sI28
(dp1323
sI31
(dp1324
ssI10
(dp1325
I27
(dp1326
sI9
g1317
sI11
(dp1327
sI4
g1296
sI28
(dp1328
ssI11
(dp1329
I8
g1306
sI9
g1318
sI10
g1327
sI27
(dp1330
ssI12
(dp1331
I1
g1266
sI3
g1290
sI14
(dp1332
ssI13
(dp1333
I1
g1267
sI4
g1297
ssI14
(dp1334
I1
g1268
sI2
g1280
sI12
g1332
ssI15
(dp1335
I8
g1307
sI9
g1319
ssI16
(dp1336
I8
g1308
sI9
g1320
ssI17
(dp1337
I8
g1309
sI9
g1321
ssI18
(dp1338
I1
g1269
sI2
g1281
ssI19
(dp1339
I2
g1282
sI3
g1291
ssI20
(dp1340
I1
g1270
sI2
g1283
sI4
g1298
ssI21
(dp1341
I1
g1271
sI2
g1284
ssI22
(dp1342
I1
g1272
sI2
g1285
sI25
(dp1343
sI23
(dp1344
ssI23
(dp1345
I1
g1273
sI22
g1344
ssI24
(dp1346
I1
g1274
sI2
g1286
ssI25
(dp1347
I2
g1287
sI22
g1343
ssI26
(dp1348
I2
g1288
ssI27
(dp1349
I33
(dp1350
sI8
g1310
sI9
g1322
sI10
g1326
sI11
g1330
sI28
(dp1351
sI29
(dp1352
sI31
(dp1353
ssI28
(dp1354
I8
g1311
sI9
g1323
sI10
g1328
sI27
g1351
sI29
(dp1355
ssI29
(dp1356
I8
g1312
sI27
g1352
sI28
g1355
sI31
(dp1357
ssI30
(dp1358
I8
g1313
ssI31
(dp1359
I8
g1314
sI9
g1324
sI27
g1353
sI29
g1357
ssI32
(dp1360
I8
g1304
ssI33
(dp1361
I9
g1316
sI27
g1350
sssg163
(dp1362
sg165
g46
sg166
g1254
sbag4
(g5
g6
NtRp1363
(dp1364
g9
(dp1365
I0
(dp1366
sI1
(dp1367
sI2
(dp1368
sI3
(dp1369
sI4
(dp1370
sI5
(dp1371
sI6
(dp1372
sI7
(dp1373
sI8
(dp1374
sI9
(dp1375
sI10
(dp1376
sI11
(dp1377
sI12
(dp1378
sI13
(dp1379
sI14
(dp1380
sI15
(dp1381
sI16
(dp1382
sI17
(dp1383
sI18
(dp1384
sI19
(dp1385
sI20
(dp1386
sI21
(dp1387
sI22
(dp1388
sI23
(dp1389
sI24
(dp1390
sI25
(dp1391
sI26
(dp1392
sI27
(dp1393
sI28
(dp1394
sI29
(dp1395
sI30
(dp1396
sI31
(dp1397
sI32
(dp1398
sI33
(dp1399
ssg45
g46
sg47
g46
sg48
(dp1400
I0
(dp1401
I1
(dp1402
sI2
(dp1403
sI3
(dp1404
ssI1
(dp1405
I0
g1402
sI2
(dp1406
sI4
(dp1407
sI6
(dp1408
sI8
(dp1409
sI9
(dp1410
sI10
(dp1411
sI12
(dp1412
sI13
(dp1413
sI14
(dp1414
sI15
(dp1415
sI17
(dp1416
sI18
(dp1417
sI21
(dp1418
sI22
(dp1419
sI23
(dp1420
sI25
(dp1421
sI26
(dp1422
sI28
(dp1423
sI29
(dp1424
sI30
(dp1425
sI31
(dp1426
ssI2
(dp1427
I0
g1403
sI1
g1406
sI33
(dp1428
sI4
(dp1429
sI5
(dp1430
sI7
(dp1431
sI9
(dp1432
sI32
(dp1433
sI12
(dp1434
sI14
(dp1435
sI15
(dp1436
sI16
(dp1437
sI21
(dp1438
sI22
(dp1439
sI23
(dp1440
sI24
(dp1441
sI25
(dp1442
sI26
(dp1443
sI28
(dp1444
sI31
(dp1445
ssI3
(dp1446
I0
g1404
sI4
(dp1447
sI6
(dp1448
sI11
(dp1449
sI18
(dp1450
sI19
(dp1451
sI20
(dp1452
sI27
(dp1453
sI28
(dp1454
sI29
(dp1455
sI30
(dp1456
ssI4
(dp1457
I1
g1407
sI2
g1429
sI3
g1447
sI5
(dp1458
ssI5
(dp1459
I2
g1430
sI4
g1458
sI6
(dp1460
sI7
(dp1461
ssI6
(dp1462
I1
g1408
sI3
g1448
sI5
g1460
ssI7
(dp1463
I8
(dp1464
sI16
(dp1465
sI2
g1431
sI19
(dp1466
sI5
g1461
ssI8
(dp1467
I1
g1409
sI10
(dp1468
sI11
(dp1469
sI20
(dp1470
sI7
g1464
ssI9
(dp1471
I1
g1410
sI2
g1432
ssI10
(dp1472
I8
g1468
sI1
g1411
sI11
(dp1473
ssI11
(dp1474
I8
g1469
sI10
g1473
sI3
g1449
ssI12
(dp1475
I24
(dp1476
sI1
g1412
sI2
g1434
sI13
(dp1477
ssI13
(dp1478
I1
g1413
sI12
g1477
sI21
(dp1479
sI15
(dp1480
ssI14
(dp1481
I1
g1414
sI2
g1435
ssI15
(dp1482
I1
g1415
sI2
g1436
sI13
g1480
ssI16
(dp1483
I17
(dp1484
sI2
g1437
sI27
(dp1485
sI28
(dp1486
sI7
g1465
ssI17
(dp1487
I16
g1484
sI1
g1416
ssI18
(dp1488
I1
g1417
sI3
g1450
ssI19
(dp1489
I3
g1451
sI7
g1466
ssI20
(dp1490
I8
g1470
sI3
g1452
ssI21
(dp1491
I1
g1418
sI2
g1438
sI13
g1479
ssI22
(dp1492
I1
g1419
sI2
g1439
ssI23
(dp1493
I1
g1420
sI2
g1440
ssI24
(dp1494
I2
g1441
sI12
g1476
ssI25
(dp1495
I1
g1421
sI2
g1442
ssI26
(dp1496
I1
g1422
sI2
g1443
ssI27
(dp1497
I16
g1485
sI3
g1453
ssI28
(dp1498
I16
g1486
sI1
g1423
sI2
g1444
sI3
g1454
ssI29
(dp1499
I1
g1424
sI3
g1455
ssI30
(dp1500
I1
g1425
sI3
g1456
ssI31
(dp1501
I1
g1426
sI2
g1445
ssI32
(dp1502
I33
(dp1503
sI2
g1433
ssI33
(dp1504
I32
g1503
sI2
g1428
sssg163
(dp1505
sg165
g46
sg166
g1400
sbas.