(lp1
ccopy_reg
_reconstructor
p2
(cnetworkx.classes.graph
Graph
p3
c__builtin__
object
p4
NtRp5
(dp6
S'node'
p7
(dp8
I0
(dp9
sI1
(dp10
sI2
(dp11
sI3
(dp12
sI4
(dp13
sI5
(dp14
sI6
(dp15
sI7
(dp16
sI8
(dp17
sI9
(dp18
sI10
(dp19
sI11
(dp20
sI12
(dp21
sI13
(dp22
sI14
(dp23
sI15
(dp24
sI16
(dp25
sI17
(dp26
sI18
(dp27
sI19
(dp28
sI20
(dp29
sI21
(dp30
sI22
(dp31
sI23
(dp32
sI24
(dp33
sI25
(dp34
sI26
(dp35
sI27
(dp36
sI28
(dp37
sI29
(dp38
sI30
(dp39
sI31
(dp40
sI32
(dp41
sI33
(dp42
ssS'node_dict_factory'
p43
c__builtin__
dict
p44
sS'edge_attr_dict_factory'
p45
g44
sS'edge'
p46
(dp47
I0
(dp48
I1
(dp49
sI2
(dp50
sI3
(dp51
ssI1
(dp52
I0
g49
sI32
(dp53
sI2
(dp54
sI4
(dp55
sI6
(dp56
sI33
(dp57
sI16
(dp58
sI19
(dp59
sI20
(dp60
sI22
(dp61
sI24
(dp62
sI25
(dp63
sI27
(dp64
sI28
(dp65
sI29
(dp66
sI30
(dp67
sI31
(dp68
ssI2
(dp69
I0
g50
sI1
g54
sI5
(dp70
sI7
(dp71
sI8
(dp72
sI9
(dp73
sI10
(dp74
sI11
(dp75
sI13
(dp76
sI15
(dp77
sI17
(dp78
sI23
(dp79
ssI3
(dp80
I0
g51
sI4
(dp81
ssI4
(dp82
I1
g55
sI3
g81
sI6
(dp83
sI7
(dp84
sI11
(dp85
sI12
(dp86
sI14
(dp87
sI17
(dp88
sI18
(dp89
sI23
(dp90
sI26
(dp91
ssI5
(dp92
I2
g70
ssI6
(dp93
I8
(dp94
sI1
g56
sI15
(dp95
sI4
g83
sI7
(dp96
ssI7
(dp97
I2
g71
sI4
g84
sI6
g96
sI8
(dp98
sI9
(dp99
sI11
(dp100
sI13
(dp101
ssI8
(dp102
I9
(dp103
sI2
g72
sI11
(dp104
sI6
g94
sI7
g98
ssI9
(dp105
I8
g103
sI2
g73
sI12
(dp106
sI7
g99
ssI10
(dp107
I2
g74
ssI11
(dp108
I8
g104
sI2
g75
sI4
g85
sI7
g100
ssI12
(dp109
I9
g106
sI4
g86
sI13
(dp110
ssI13
(dp111
I2
g76
sI12
g110
sI7
g101
ssI14
(dp112
I18
(dp113
sI4
g87
ssI15
(dp114
I2
g77
sI6
g95
ssI16
(dp115
I1
g58
sI19
(dp116
sI20
(dp117
sI21
(dp118
sI22
(dp119
sI24
(dp120
sI27
(dp121
sI28
(dp122
sI29
(dp123
ssI17
(dp124
I2
g78
sI4
g88
ssI18
(dp125
I4
g89
sI14
g113
ssI19
(dp126
I1
g59
sI16
g116
sI20
(dp127
sI21
(dp128
sI24
(dp129
sI30
(dp130
ssI20
(dp131
I16
g117
sI1
g60
sI19
g127
sI21
(dp132
ssI21
(dp133
I16
g118
sI19
g128
sI20
g132
sI22
(dp134
sI24
(dp135
sI25
(dp136
sI27
(dp137
ssI22
(dp138
I16
g119
sI1
g61
sI21
g134
ssI23
(dp139
I2
g79
sI4
g90
ssI24
(dp140
I16
g120
sI1
g62
sI19
g129
sI21
g135
sI25
(dp141
ssI25
(dp142
I24
g141
sI1
g63
sI21
g136
ssI26
(dp143
I4
g91
ssI27
(dp144
I16
g121
sI1
g64
sI21
g137
sI32
(dp145
ssI28
(dp146
I16
g122
sI1
g65
ssI29
(dp147
I16
g123
sI1
g66
ssI30
(dp148
I1
g67
sI19
g130
ssI31
(dp149
I1
g68
sI33
(dp150
ssI32
(dp151
I1
g53
sI27
g145
ssI33
(dp152
I1
g57
sI31
g150
sssS'graph'
p153
(dp154
sS'adjlist_dict_factory'
p155
g44
sS'adj'
p156
g47
sbag2
(g3
g4
NtRp157
(dp158
g7
(dp159
I0
(dp160
sI1
(dp161
sI2
(dp162
sI3
(dp163
sI4
(dp164
sI5
(dp165
sI6
(dp166
sI7
(dp167
sI8
(dp168
sI9
(dp169
sI10
(dp170
sI11
(dp171
sI12
(dp172
sI13
(dp173
sI14
(dp174
sI15
(dp175
sI16
(dp176
sI17
(dp177
sI18
(dp178
sI19
(dp179
sI20
(dp180
sI21
(dp181
sI22
(dp182
sI23
(dp183
sI24
(dp184
sI25
(dp185
sI26
(dp186
sI27
(dp187
sI28
(dp188
sI29
(dp189
sI30
(dp190
sI31
(dp191
sI32
(dp192
sI33
(dp193
ssg43
g44
sg45
g44
sg46
(dp194
I0
(dp195
I1
(dp196
sI2
(dp197
sI3
(dp198
ssI1
(dp199
I0
g196
sI2
(dp200
sI4
(dp201
sI6
(dp202
sI7
(dp203
sI8
(dp204
sI9
(dp205
sI10
(dp206
sI11
(dp207
sI13
(dp208
sI15
(dp209
sI16
(dp210
sI17
(dp211
sI20
(dp212
sI21
(dp213
sI22
(dp214
sI23
(dp215
sI25
(dp216
sI26
(dp217
sI27
(dp218
sI28
(dp219
sI31
(dp220
sI32
(dp221
ssI2
(dp222
I0
g197
sI1
g200
sI32
(dp223
sI5
(dp224
sI7
(dp225
sI8
(dp226
sI12
(dp227
sI13
(dp228
sI14
(dp229
sI16
(dp230
sI17
(dp231
sI19
(dp232
sI22
(dp233
sI23
(dp234
sI24
(dp235
sI33
(dp236
sI28
(dp237
sI29
(dp238
sI30
(dp239
ssI3
(dp240
I0
g198
sI4
(dp241
sI5
(dp242
ssI4
(dp243
I1
g201
sI3
g241
sI12
(dp244
sI6
(dp245
ssI5
(dp246
I2
g224
sI3
g242
ssI6
(dp247
I8
(dp248
sI1
g202
sI4
g245
sI20
(dp249
sI9
(dp250
ssI7
(dp251
I1
g203
sI2
g225
ssI8
(dp252
I1
g204
sI2
g226
sI6
g248
sI9
(dp253
sI10
(dp254
sI13
(dp255
sI14
(dp256
sI18
(dp257
sI23
(dp258
sI25
(dp259
sI26
(dp260
sI27
(dp261
sI29
(dp262
ssI9
(dp263
I8
g253
sI1
g205
sI10
(dp264
sI13
(dp265
sI6
g250
ssI10
(dp266
I8
g254
sI9
g264
sI14
(dp267
sI1
g206
ssI11
(dp268
I1
g207
sI21
(dp269
ssI12
(dp270
I2
g227
sI4
g244
ssI13
(dp271
I1
g208
sI2
g228
sI8
g255
sI9
g265
sI18
(dp272
sI22
(dp273
ssI14
(dp274
I2
g229
sI8
g256
sI10
g267
sI15
(dp275
sI19
(dp276
sI24
(dp277
ssI15
(dp278
I1
g209
sI14
g275
sI17
(dp279
ssI16
(dp280
I1
g210
sI2
g230
ssI17
(dp281
I1
g211
sI2
g231
sI15
g279
ssI18
(dp282
I8
g257
sI28
(dp283
sI13
g272
sI22
(dp284
ssI19
(dp285
I2
g232
sI14
g276
sI23
(dp286
ssI20
(dp287
I1
g212
sI6
g249
ssI21
(dp288
I1
g213
sI11
g269
ssI22
(dp289
I1
g214
sI2
g233
sI18
g284
sI28
(dp290
sI13
g273
ssI23
(dp291
I8
g258
sI1
g215
sI2
g234
sI19
g286
ssI24
(dp292
I2
g235
sI14
g277
ssI25
(dp293
I8
g259
sI1
g216
sI26
(dp294
ssI26
(dp295
I8
g260
sI25
g294
sI31
(dp296
sI1
g217
ssI27
(dp297
I8
g261
sI1
g218
ssI28
(dp298
I1
g219
sI2
g237
sI18
g283
sI22
g290
ssI29
(dp299
I8
g262
sI2
g238
ssI30
(dp300
I33
(dp301
sI2
g239
ssI31
(dp302
I1
g220
sI26
g296
ssI32
(dp303
I1
g221
sI2
g223
ssI33
(dp304
I2
g236
sI30
g301
sssg153
(dp305
sg155
g44
sg156
g194
sbag2
(g3
g4
NtRp306
(dp307
g7
(dp308
I0
(dp309
sI1
(dp310
sI2
(dp311
sI3
(dp312
sI4
(dp313
sI5
(dp314
sI6
(dp315
sI7
(dp316
sI8
(dp317
sI9
(dp318
sI10
(dp319
sI11
(dp320
sI12
(dp321
sI13
(dp322
sI14
(dp323
sI15
(dp324
sI16
(dp325
sI17
(dp326
sI18
(dp327
sI19
(dp328
sI20
(dp329
sI21
(dp330
sI22
(dp331
sI23
(dp332
sI24
(dp333
sI25
(dp334
sI26
(dp335
sI27
(dp336
sI28
(dp337
sI29
(dp338
sI30
(dp339
sI31
(dp340
sI32
(dp341
sI33
(dp342
ssg43
g44
sg45
g44
sg46
(dp343
I0
(dp344
I1
(dp345
sI2
(dp346
sI3
(dp347
ssI1
(dp348
I0
g345
sI2
(dp349
sI4
(dp350
sI5
(dp351
sI6
(dp352
sI7
(dp353
sI8
(dp354
sI10
(dp355
sI11
(dp356
sI12
(dp357
sI13
(dp358
sI14
(dp359
sI16
(dp360
sI17
(dp361
sI18
(dp362
sI19
(dp363
sI20
(dp364
sI21
(dp365
sI23
(dp366
sI24
(dp367
sI25
(dp368
sI26
(dp369
sI27
(dp370
sI28
(dp371
sI29
(dp372
sI30
(dp373
sI31
(dp374
ssI2
(dp375
I0
g346
sI1
g349
sI4
(dp376
sI33
(dp377
sI32
(dp378
sI8
(dp379
sI10
(dp380
sI12
(dp381
sI13
(dp382
sI14
(dp383
sI15
(dp384
sI17
(dp385
sI18
(dp386
sI19
(dp387
sI23
(dp388
sI24
(dp389
sI26
(dp390
sI27
(dp391
sI28
(dp392
sI29
(dp393
sI30
(dp394
ssI3
(dp395
I0
g347
sI16
(dp396
sI4
(dp397
sI5
(dp398
ssI4
(dp399
I1
g350
sI2
g376
sI3
g397
sI5
(dp400
sI6
(dp401
sI9
(dp402
sI10
(dp403
sI11
(dp404
sI17
(dp405
sI23
(dp406
sI30
(dp407
ssI5
(dp408
I1
g351
sI3
g398
sI4
g400
sI6
(dp409
sI9
(dp410
sI13
(dp411
ssI6
(dp412
I1
g352
sI4
g401
sI5
g409
ssI7
(dp413
I1
g353
sI25
(dp414
ssI8
(dp415
I1
g354
sI2
g379
ssI9
(dp416
I4
g402
sI5
g410
sI22
(dp417
sI13
(dp418
ssI10
(dp419
I1
g355
sI2
g380
sI4
g403
sI11
(dp420
sI17
(dp421
sI23
(dp422
ssI11
(dp423
I1
g356
sI4
g404
sI10
g420
sI12
(dp424
sI19
(dp425
sI31
(dp426
ssI12
(dp427
I1
g357
sI2
g381
sI11
g424
sI19
(dp428
sI20
(dp429
sI24
(dp430
ssI13
(dp431
I1
g358
sI2
g382
sI5
g411
sI9
g418
sI22
(dp432
sI26
(dp433
ssI14
(dp434
I1
g359
sI2
g383
ssI15
(dp435
I2
g384
ssI16
(dp436
I1
g360
sI3
g396
ssI17
(dp437
I1
g361
sI2
g385
sI18
(dp438
sI4
g405
sI10
g421
ssI18
(dp439
I17
g438
sI2
g386
sI1
g362
ssI19
(dp440
I1
g363
sI2
g387
sI11
g425
sI12
g428
sI20
(dp441
ssI20
(dp442
I1
g364
sI19
g441
sI12
g429
ssI21
(dp443
I1
g365
ssI22
(dp444
I9
g417
sI26
(dp445
sI13
g432
ssI23
(dp446
I1
g366
sI2
g388
sI4
g406
sI10
g422
ssI24
(dp447
I1
g367
sI2
g389
sI12
g430
ssI25
(dp448
I1
g368
sI7
g414
ssI26
(dp449
I1
g369
sI2
g390
sI13
g433
sI22
g445
ssI27
(dp450
I1
g370
sI2
g391
ssI28
(dp451
I1
g371
sI2
g392
ssI29
(dp452
I1
g372
sI2
g393
ssI30
(dp453
I1
g373
sI2
g394
sI4
g407
ssI31
(dp454
I1
g374
sI11
g426
ssI32
(dp455
I33
(dp456
sI2
g378
ssI33
(dp457
I32
g456
sI2
g377
sssg153
(dp458
sg155
g44
sg156
g343
sbag2
(g3
g4
NtRp459
(dp460
g7
(dp461
I0
(dp462
sI1
(dp463
sI2
(dp464
sI3
(dp465
sI4
(dp466
sI5
(dp467
sI6
(dp468
sI7
(dp469
sI8
(dp470
sI9
(dp471
sI10
(dp472
sI11
(dp473
sI12
(dp474
sI13
(dp475
sI14
(dp476
sI15
(dp477
sI16
(dp478
sI17
(dp479
sI18
(dp480
sI19
(dp481
sI20
(dp482
sI21
(dp483
sI22
(dp484
sI23
(dp485
sI24
(dp486
sI25
(dp487
sI26
(dp488
sI27
(dp489
sI28
(dp490
sI29
(dp491
sI30
(dp492
sI31
(dp493
sI32
(dp494
sI33
(dp495
ssg43
g44
sg45
g44
sg46
(dp496
I0
(dp497
I1
(dp498
sI2
(dp499
sI3
(dp500
ssI1
(dp501
I0
g498
sI2
(dp502
sI4
(dp503
sI6
(dp504
sI7
(dp505
sI8
(dp506
sI9
(dp507
sI10
(dp508
sI11
(dp509
sI12
(dp510
sI13
(dp511
sI14
(dp512
sI15
(dp513
sI16
(dp514
sI18
(dp515
sI19
(dp516
sI20
(dp517
sI21
(dp518
sI22
(dp519
sI23
(dp520
sI26
(dp521
sI27
(dp522
sI28
(dp523
sI29
(dp524
sI30
(dp525
sI31
(dp526
sI32
(dp527
sI33
(dp528
ssI2
(dp529
I0
g499
sI1
g502
sI4
(dp530
sI5
(dp531
sI6
(dp532
sI10
(dp533
sI11
(dp534
sI12
(dp535
sI13
(dp536
sI14
(dp537
sI15
(dp538
sI17
(dp539
sI18
(dp540
sI21
(dp541
sI24
(dp542
sI26
(dp543
sI27
(dp544
sI28
(dp545
sI29
(dp546
sI30
(dp547
ssI3
(dp548
I0
g500
sI10
(dp549
sI4
(dp550
sI5
(dp551
sI13
(dp552
ssI4
(dp553
I1
g503
sI2
g530
sI3
g550
sI5
(dp554
ssI5
(dp555
I2
g531
sI3
g551
sI4
g554
sI6
(dp556
sI7
(dp557
sI10
(dp558
sI16
(dp559
ssI6
(dp560
I1
g504
sI2
g532
sI5
g556
sI7
(dp561
sI8
(dp562
sI11
(dp563
sI12
(dp564
sI14
(dp565
ssI7
(dp566
I8
(dp567
sI1
g505
sI11
(dp568
sI5
g557
sI6
g561
ssI8
(dp569
I1
g506
sI6
g562
sI7
g567
sI12
(dp570
sI17
(dp571
sI25
(dp572
ssI9
(dp573
I1
g507
ssI10
(dp574
I1
g508
sI2
g533
sI3
g549
sI5
g558
sI13
(dp575
ssI11
(dp576
I1
g509
sI2
g534
sI6
g563
sI7
g568
ssI12
(dp577
I8
g570
sI1
g510
sI2
g535
sI6
g564
sI17
(dp578
ssI13
(dp579
I1
g511
sI2
g536
sI3
g552
sI10
g575
ssI14
(dp580
I1
g512
sI2
g537
sI6
g565
sI19
(dp581
sI20
(dp582
sI23
(dp583
ssI15
(dp584
I1
g513
sI2
g538
ssI16
(dp585
I1
g514
sI5
g559
ssI17
(dp586
I8
g571
sI25
(dp587
sI2
g539
sI12
g578
sI18
(dp588
ssI18
(dp589
I17
g588
sI2
g540
sI22
(dp590
sI1
g515
ssI19
(dp591
I1
g516
sI20
(dp592
sI14
g581
ssI20
(dp593
I1
g517
sI19
g592
sI14
g582
ssI21
(dp594
I1
g518
sI2
g541
ssI22
(dp595
I1
g519
sI18
g590
ssI23
(dp596
I1
g520
sI14
g583
ssI24
(dp597
I2
g542
ssI25
(dp598
I8
g572
sI17
g587
ssI26
(dp599
I1
g521
sI2
g543
ssI27
(dp600
I1
g522
sI2
g544
ssI28
(dp601
I1
g523
sI2
g545
sI29
(dp602
ssI29
(dp603
I32
(dp604
sI1
g524
sI2
g546
sI28
g602
ssI30
(dp605
I1
g525
sI2
g547
ssI31
(dp606
I1
g526
sI33
(dp607
ssI32
(dp608
I1
g527
sI29
g604
ssI33
(dp609
I1
g528
sI31
g607
sssg153
(dp610
sg155
g44
sg156
g496
sbag2
(g3
g4
NtRp611
(dp612
g7
(dp613
I0
(dp614
sI1
(dp615
sI2
(dp616
sI3
(dp617
sI4
(dp618
sI5
(dp619
sI6
(dp620
sI7
(dp621
sI8
(dp622
sI9
(dp623
sI10
(dp624
sI11
(dp625
sI12
(dp626
sI13
(dp627
sI14
(dp628
sI15
(dp629
sI16
(dp630
sI17
(dp631
sI18
(dp632
sI19
(dp633
sI20
(dp634
sI21
(dp635
sI22
(dp636
sI23
(dp637
sI24
(dp638
sI25
(dp639
sI26
(dp640
sI27
(dp641
sI28
(dp642
sI29
(dp643
sI30
(dp644
sI31
(dp645
sI32
(dp646
sI33
(dp647
ssg43
g44
sg45
g44
sg46
(dp648
I0
(dp649
I1
(dp650
sI2
(dp651
sI3
(dp652
ssI1
(dp653
I0
g650
sI2
(dp654
sI4
(dp655
sI5
(dp656
sI6
(dp657
sI7
(dp658
sI11
(dp659
sI12
(dp660
sI13
(dp661
sI14
(dp662
sI15
(dp663
sI16
(dp664
sI18
(dp665
sI19
(dp666
sI20
(dp667
sI21
(dp668
sI23
(dp669
sI24
(dp670
sI25
(dp671
sI26
(dp672
sI28
(dp673
sI29
(dp674
sI30
(dp675
sI31
(dp676
ssI2
(dp677
I0
g651
sI1
g654
sI4
(dp678
sI11
(dp679
sI12
(dp680
sI13
(dp681
sI15
(dp682
sI16
(dp683
sI17
(dp684
sI18
(dp685
sI19
(dp686
sI20
(dp687
sI21
(dp688
sI22
(dp689
sI25
(dp690
sI26
(dp691
sI27
(dp692
sI28
(dp693
sI29
(dp694
sI30
(dp695
sI31
(dp696
sI32
(dp697
sI33
(dp698
ssI3
(dp699
I0
g652
sI4
(dp700
sI5
(dp701
sI14
(dp702
ssI4
(dp703
I1
g655
sI2
g678
sI3
g700
sI5
(dp704
sI6
(dp705
sI8
(dp706
sI9
(dp707
ssI5
(dp708
I1
g656
sI3
g701
sI4
g704
sI6
(dp709
sI8
(dp710
sI10
(dp711
ssI6
(dp712
I1
g657
sI4
g705
sI5
g709
sI9
(dp713
sI11
(dp714
sI15
(dp715
sI20
(dp716
ssI7
(dp717
I1
g658
ssI8
(dp718
I12
(dp719
sI10
(dp720
sI4
g706
sI5
g710
sI17
(dp721
ssI9
(dp722
I11
(dp723
sI4
g707
sI6
g713
ssI10
(dp724
I8
g720
sI12
(dp725
sI5
g711
ssI11
(dp726
I32
(dp727
sI1
g659
sI2
g679
sI6
g714
sI9
g723
sI15
(dp728
sI20
(dp729
sI21
(dp730
sI22
(dp731
sI26
(dp732
ssI12
(dp733
I8
g719
sI1
g660
sI2
g680
sI10
g725
ssI13
(dp734
I1
g661
sI2
g681
ssI14
(dp735
I1
g662
sI3
g702
ssI15
(dp736
I16
(dp737
sI1
g663
sI2
g682
sI11
g728
sI6
g715
ssI16
(dp738
I24
(dp739
sI1
g664
sI2
g683
sI15
g737
ssI17
(dp740
I8
g721
sI2
g684
ssI18
(dp741
I1
g665
sI2
g685
ssI19
(dp742
I1
g666
sI2
g686
ssI20
(dp743
I1
g667
sI2
g687
sI11
g729
sI21
(dp744
sI6
g716
ssI21
(dp745
I1
g668
sI2
g688
sI11
g730
sI20
g744
sI22
(dp746
ssI22
(dp747
I2
g689
sI11
g731
sI21
g746
sI23
(dp748
sI26
(dp749
sI27
(dp750
ssI23
(dp751
I1
g669
sI31
(dp752
sI33
(dp753
sI22
g748
sI25
(dp754
ssI24
(dp755
I16
g739
sI1
g670
ssI25
(dp756
I1
g671
sI2
g690
sI31
(dp757
sI23
g754
ssI26
(dp758
I1
g672
sI2
g691
sI11
g732
sI22
g749
ssI27
(dp759
I2
g692
sI22
g750
ssI28
(dp760
I1
g673
sI2
g693
ssI29
(dp761
I1
g674
sI2
g694
ssI30
(dp762
I1
g675
sI2
g695
ssI31
(dp763
I25
g757
sI2
g696
sI1
g676
sI23
g752
ssI32
(dp764
I2
g697
sI11
g727
ssI33
(dp765
I2
g698
sI23
g753
sssg153
(dp766
sg155
g44
sg156
g648
sba.